	.file	"unity.cpp"
	.text
	.section	.text._ZNSt23_Sp_counted_ptr_inplaceI6ChunckSaIS0_ELN9__gnu_cxx12_Lock_policyE2EED2Ev,"axG",@progbits,_ZNSt23_Sp_counted_ptr_inplaceI6ChunckSaIS0_ELN9__gnu_cxx12_Lock_policyE2EED5Ev,comdat
	.align 2
	.p2align 4
	.weak	_ZNSt23_Sp_counted_ptr_inplaceI6ChunckSaIS0_ELN9__gnu_cxx12_Lock_policyE2EED2Ev
	.type	_ZNSt23_Sp_counted_ptr_inplaceI6ChunckSaIS0_ELN9__gnu_cxx12_Lock_policyE2EED2Ev, @function
_ZNSt23_Sp_counted_ptr_inplaceI6ChunckSaIS0_ELN9__gnu_cxx12_Lock_policyE2EED2Ev:
.LFB9160:
	.cfi_startproc
	ret
	.cfi_endproc
.LFE9160:
	.size	_ZNSt23_Sp_counted_ptr_inplaceI6ChunckSaIS0_ELN9__gnu_cxx12_Lock_policyE2EED2Ev, .-_ZNSt23_Sp_counted_ptr_inplaceI6ChunckSaIS0_ELN9__gnu_cxx12_Lock_policyE2EED2Ev
	.weak	_ZNSt23_Sp_counted_ptr_inplaceI6ChunckSaIS0_ELN9__gnu_cxx12_Lock_policyE2EED1Ev
	.set	_ZNSt23_Sp_counted_ptr_inplaceI6ChunckSaIS0_ELN9__gnu_cxx12_Lock_policyE2EED1Ev,_ZNSt23_Sp_counted_ptr_inplaceI6ChunckSaIS0_ELN9__gnu_cxx12_Lock_policyE2EED2Ev
	.section	.text._ZNSt23_Sp_counted_ptr_inplaceI6ChunckSaIS0_ELN9__gnu_cxx12_Lock_policyE2EED0Ev,"axG",@progbits,_ZNSt23_Sp_counted_ptr_inplaceI6ChunckSaIS0_ELN9__gnu_cxx12_Lock_policyE2EED5Ev,comdat
	.align 2
	.p2align 4
	.weak	_ZNSt23_Sp_counted_ptr_inplaceI6ChunckSaIS0_ELN9__gnu_cxx12_Lock_policyE2EED0Ev
	.type	_ZNSt23_Sp_counted_ptr_inplaceI6ChunckSaIS0_ELN9__gnu_cxx12_Lock_policyE2EED0Ev, @function
_ZNSt23_Sp_counted_ptr_inplaceI6ChunckSaIS0_ELN9__gnu_cxx12_Lock_policyE2EED0Ev:
.LFB9162:
	.cfi_startproc
	movl	$120, %esi
	jmp	_ZdlPvm@PLT
	.cfi_endproc
.LFE9162:
	.size	_ZNSt23_Sp_counted_ptr_inplaceI6ChunckSaIS0_ELN9__gnu_cxx12_Lock_policyE2EED0Ev, .-_ZNSt23_Sp_counted_ptr_inplaceI6ChunckSaIS0_ELN9__gnu_cxx12_Lock_policyE2EED0Ev
	.section	.text._ZNSt23_Sp_counted_ptr_inplaceI6ChunckSaIS0_ELN9__gnu_cxx12_Lock_policyE2EE10_M_destroyEv,"axG",@progbits,_ZNSt23_Sp_counted_ptr_inplaceI6ChunckSaIS0_ELN9__gnu_cxx12_Lock_policyE2EE10_M_destroyEv,comdat
	.align 2
	.p2align 4
	.weak	_ZNSt23_Sp_counted_ptr_inplaceI6ChunckSaIS0_ELN9__gnu_cxx12_Lock_policyE2EE10_M_destroyEv
	.type	_ZNSt23_Sp_counted_ptr_inplaceI6ChunckSaIS0_ELN9__gnu_cxx12_Lock_policyE2EE10_M_destroyEv, @function
_ZNSt23_Sp_counted_ptr_inplaceI6ChunckSaIS0_ELN9__gnu_cxx12_Lock_policyE2EE10_M_destroyEv:
.LFB9164:
	.cfi_startproc
	movl	$120, %esi
	jmp	_ZdlPvm@PLT
	.cfi_endproc
.LFE9164:
	.size	_ZNSt23_Sp_counted_ptr_inplaceI6ChunckSaIS0_ELN9__gnu_cxx12_Lock_policyE2EE10_M_destroyEv, .-_ZNSt23_Sp_counted_ptr_inplaceI6ChunckSaIS0_ELN9__gnu_cxx12_Lock_policyE2EE10_M_destroyEv
	.section	.text._ZNSt23_Sp_counted_ptr_inplaceI6ChunckSaIS0_ELN9__gnu_cxx12_Lock_policyE2EE10_M_disposeEv,"axG",@progbits,_ZNSt23_Sp_counted_ptr_inplaceI6ChunckSaIS0_ELN9__gnu_cxx12_Lock_policyE2EE10_M_disposeEv,comdat
	.align 2
	.p2align 4
	.weak	_ZNSt23_Sp_counted_ptr_inplaceI6ChunckSaIS0_ELN9__gnu_cxx12_Lock_policyE2EE10_M_disposeEv
	.type	_ZNSt23_Sp_counted_ptr_inplaceI6ChunckSaIS0_ELN9__gnu_cxx12_Lock_policyE2EE10_M_disposeEv, @function
_ZNSt23_Sp_counted_ptr_inplaceI6ChunckSaIS0_ELN9__gnu_cxx12_Lock_policyE2EE10_M_disposeEv:
.LFB9163:
	.cfi_startproc
	pushq	%rbx
	.cfi_def_cfa_offset 16
	.cfi_offset 3, -16
	movq	%rdi, %rbx
	movq	64(%rdi), %rdi
	testq	%rdi, %rdi
	je	.L6
	movq	80(%rbx), %rsi
	subq	%rdi, %rsi
	call	_ZdlPvm@PLT
.L6:
	movq	40(%rbx), %rdi
	testq	%rdi, %rdi
	je	.L7
	movq	56(%rbx), %rsi
	subq	%rdi, %rsi
	call	_ZdlPvm@PLT
.L7:
	movq	16(%rbx), %rdi
	testq	%rdi, %rdi
	je	.L5
	movq	32(%rbx), %rsi
	popq	%rbx
	.cfi_remember_state
	.cfi_def_cfa_offset 8
	subq	%rdi, %rsi
	jmp	_ZdlPvm@PLT
	.p2align 4,,10
	.p2align 3
.L5:
	.cfi_restore_state
	popq	%rbx
	.cfi_def_cfa_offset 8
	ret
	.cfi_endproc
.LFE9163:
	.size	_ZNSt23_Sp_counted_ptr_inplaceI6ChunckSaIS0_ELN9__gnu_cxx12_Lock_policyE2EE10_M_disposeEv, .-_ZNSt23_Sp_counted_ptr_inplaceI6ChunckSaIS0_ELN9__gnu_cxx12_Lock_policyE2EE10_M_disposeEv
	.text
	.align 2
	.p2align 4
	.globl	_ZN11ImguiWindow5shoutEv
	.type	_ZN11ImguiWindow5shoutEv, @function
_ZN11ImguiWindow5shoutEv:
.LFB4732:
	.cfi_startproc
	pushq	%rbp
	.cfi_def_cfa_offset 16
	.cfi_offset 6, -16
	movq	%rdi, %rbp
	xorl	%edx, %edx
	xorl	%esi, %esi
	pushq	%rbx
	.cfi_def_cfa_offset 24
	.cfi_offset 3, -24
	subq	$8, %rsp
	.cfi_def_cfa_offset 32
	movq	32(%rdi), %rdi
	call	_ZN5ImGui5BeginEPKcPbi@PLT
	movq	8(%rbp), %rbx
	movq	16(%rbp), %rbp
	cmpq	%rbx, %rbp
	je	.L17
	.p2align 4,,10
	.p2align 3
.L18:
	movq	(%rbx), %rdi
	addq	$8, %rbx
	movq	(%rdi), %rax
	call	*(%rax)
	cmpq	%rbx, %rbp
	jne	.L18
.L17:
	addq	$8, %rsp
	.cfi_def_cfa_offset 24
	popq	%rbx
	.cfi_def_cfa_offset 16
	popq	%rbp
	.cfi_def_cfa_offset 8
	jmp	_ZN5ImGui3EndEv@PLT
	.cfi_endproc
.LFE4732:
	.size	_ZN11ImguiWindow5shoutEv, .-_ZN11ImguiWindow5shoutEv
	.align 2
	.p2align 4
	.globl	_ZN14ImguiTextField5shoutEv
	.type	_ZN14ImguiTextField5shoutEv, @function
_ZN14ImguiTextField5shoutEv:
.LFB4745:
	.cfi_startproc
	movq	40(%rdi), %rdi
	xorl	%eax, %eax
	jmp	_ZN5ImGui4TextEPKcz@PLT
	.cfi_endproc
.LFE4745:
	.size	_ZN14ImguiTextField5shoutEv, .-_ZN14ImguiTextField5shoutEv
	.align 2
	.p2align 4
	.globl	_ZN13ImguiCheckBox5shoutEv
	.type	_ZN13ImguiCheckBox5shoutEv, @function
_ZN13ImguiCheckBox5shoutEv:
.LFB4750:
	.cfi_startproc
	movq	40(%rdi), %rsi
	movq	48(%rdi), %rdi
	jmp	_ZN5ImGui8CheckboxEPKcPb@PLT
	.cfi_endproc
.LFE4750:
	.size	_ZN13ImguiCheckBox5shoutEv, .-_ZN13ImguiCheckBox5shoutEv
	.section	.rodata.str1.1,"aMS",@progbits,1
.LC0:
	.string	"%.3f"
	.text
	.align 2
	.p2align 4
	.globl	_ZN16ImguiSliderFloat5shoutEv
	.type	_ZN16ImguiSliderFloat5shoutEv, @function
_ZN16ImguiSliderFloat5shoutEv:
.LFB4754:
	.cfi_startproc
	movq	48(%rdi), %r8
	movss	84(%rdi), %xmm0
	xorl	%ecx, %ecx
	leaq	.LC0(%rip), %rdx
	movq	40(%rdi), %rsi
	movss	80(%rdi), %xmm1
	movq	%r8, %rdi
	jmp	_ZN5ImGui11SliderFloatEPKcPfffS1_i@PLT
	.cfi_endproc
.LFE4754:
	.size	_ZN16ImguiSliderFloat5shoutEv, .-_ZN16ImguiSliderFloat5shoutEv
	.section	.rodata.str1.1
.LC1:
	.string	"%d"
	.text
	.align 2
	.p2align 4
	.globl	_ZN14ImguiSliderInt5shoutEv
	.type	_ZN14ImguiSliderInt5shoutEv, @function
_ZN14ImguiSliderInt5shoutEv:
.LFB4758:
	.cfi_startproc
	movl	80(%rdi), %ecx
	movl	84(%rdi), %edx
	xorl	%r9d, %r9d
	leaq	.LC1(%rip), %r8
	movq	40(%rdi), %rsi
	movq	48(%rdi), %rdi
	jmp	_ZN5ImGui9SliderIntEPKcPiiiS1_i@PLT
	.cfi_endproc
.LFE4758:
	.size	_ZN14ImguiSliderInt5shoutEv, .-_ZN14ImguiSliderInt5shoutEv
	.align 2
	.p2align 4
	.globl	_ZN11ImguiButton5shoutEv
	.type	_ZN11ImguiButton5shoutEv, @function
_ZN11ImguiButton5shoutEv:
.LFB4762:
	.cfi_startproc
	pushq	%rbx
	.cfi_def_cfa_offset 16
	.cfi_offset 3, -16
	movq	%rdi, %rbx
	subq	$16, %rsp
	.cfi_def_cfa_offset 32
	movq	48(%rdi), %rdi
	movq	%fs:40, %rax
	movq	%rax, 8(%rsp)
	xorl	%eax, %eax
	movq	%rsp, %rsi
	movq	$0, (%rsp)
	call	_ZN5ImGui6ButtonEPKcRK6ImVec2@PLT
	testb	%al, %al
	movq	40(%rbx), %rax
	je	.L26
	movb	$1, (%rax)
.L25:
	movq	8(%rsp), %rax
	subq	%fs:40, %rax
	jne	.L30
	addq	$16, %rsp
	.cfi_remember_state
	.cfi_def_cfa_offset 16
	popq	%rbx
	.cfi_def_cfa_offset 8
	ret
	.p2align 4,,10
	.p2align 3
.L26:
	.cfi_restore_state
	movb	$0, (%rax)
	jmp	.L25
.L30:
	call	__stack_chk_fail@PLT
	.cfi_endproc
.LFE4762:
	.size	_ZN11ImguiButton5shoutEv, .-_ZN11ImguiButton5shoutEv
	.section	.text._ZNSt23_Sp_counted_ptr_inplaceI6ChunckSaIS0_ELN9__gnu_cxx12_Lock_policyE2EE14_M_get_deleterERKSt9type_info,"axG",@progbits,_ZNSt23_Sp_counted_ptr_inplaceI6ChunckSaIS0_ELN9__gnu_cxx12_Lock_policyE2EE14_M_get_deleterERKSt9type_info,comdat
	.align 2
	.p2align 4
	.weak	_ZNSt23_Sp_counted_ptr_inplaceI6ChunckSaIS0_ELN9__gnu_cxx12_Lock_policyE2EE14_M_get_deleterERKSt9type_info
	.type	_ZNSt23_Sp_counted_ptr_inplaceI6ChunckSaIS0_ELN9__gnu_cxx12_Lock_policyE2EE14_M_get_deleterERKSt9type_info, @function
_ZNSt23_Sp_counted_ptr_inplaceI6ChunckSaIS0_ELN9__gnu_cxx12_Lock_policyE2EE14_M_get_deleterERKSt9type_info:
.LFB9165:
	.cfi_startproc
	leaq	_ZZNSt19_Sp_make_shared_tag5_S_tiEvE5__tag(%rip), %rax
	pushq	%r12
	.cfi_def_cfa_offset 16
	.cfi_offset 12, -16
	leaq	16(%rdi), %r12
	cmpq	%rax, %rsi
	je	.L31
	movq	8(%rsi), %rdi
	leaq	_ZTSSt19_Sp_make_shared_tag(%rip), %rsi
	cmpq	%rsi, %rdi
	je	.L31
	cmpb	$42, (%rdi)
	je	.L33
	call	strcmp@PLT
	testl	%eax, %eax
	movl	$0, %eax
	cmovne	%rax, %r12
.L31:
	movq	%r12, %rax
	popq	%r12
	.cfi_remember_state
	.cfi_def_cfa_offset 8
	ret
	.p2align 4,,10
	.p2align 3
.L33:
	.cfi_restore_state
	xorl	%r12d, %r12d
	movq	%r12, %rax
	popq	%r12
	.cfi_def_cfa_offset 8
	ret
	.cfi_endproc
.LFE9165:
	.size	_ZNSt23_Sp_counted_ptr_inplaceI6ChunckSaIS0_ELN9__gnu_cxx12_Lock_policyE2EE14_M_get_deleterERKSt9type_info, .-_ZNSt23_Sp_counted_ptr_inplaceI6ChunckSaIS0_ELN9__gnu_cxx12_Lock_policyE2EE14_M_get_deleterERKSt9type_info
	.section	.rodata.str1.1
.LC3:
	.string	"11:56:30"
	.section	.rodata.str1.8,"aMS",@progbits,1
	.align 8
.LC4:
	.string	"\033[%dm([%s - %s]: %s:%d) %s\n\033[39m"
	.text
	.p2align 4
	.type	_ZN6logger3logEiPKciS1_S1_z.constprop.0, @function
_ZN6logger3logEiPKciS1_S1_z.constprop.0:
.LFB9181:
	.cfi_startproc
	pushq	%r12
	.cfi_def_cfa_offset 16
	.cfi_offset 12, -16
	pushq	%rbp
	.cfi_def_cfa_offset 24
	.cfi_offset 6, -24
	movl	%edx, %ebp
	pushq	%rbx
	.cfi_def_cfa_offset 32
	.cfi_offset 3, -32
	movq	%rsi, %rbx
	movq	%r8, %rsi
	subq	$752, %rsp
	.cfi_def_cfa_offset 784
	movq	%r9, 616(%rsp)
	testb	%al, %al
	je	.L37
	movaps	%xmm0, 624(%rsp)
	movaps	%xmm1, 640(%rsp)
	movaps	%xmm2, 656(%rsp)
	movaps	%xmm3, 672(%rsp)
	movaps	%xmm4, 688(%rsp)
	movaps	%xmm5, 704(%rsp)
	movaps	%xmm6, 720(%rsp)
	movaps	%xmm7, 736(%rsp)
.L37:
	movq	%fs:40, %rax
	movq	%rax, 568(%rsp)
	xorl	%eax, %eax
	leaq	48(%rsp), %r12
	movabsq	$353518113349, %rax
	movdqa	.LC2(%rip), %xmm0
	movq	%rax, 16(%rsp)
	leaq	24(%rsp), %rdx
	movq	%r12, %rdi
	leaq	784(%rsp), %rax
	movq	%rax, 32(%rsp)
	leaq	576(%rsp), %rax
	movl	$40, 24(%rsp)
	movl	$48, 28(%rsp)
	movq	%rax, 40(%rsp)
	movaps	%xmm0, (%rsp)
	call	vsprintf@PLT
	leaq	16(%rsp), %rdx
	subq	$8, %rsp
	.cfi_def_cfa_offset 792
	xorl	%eax, %eax
	pushq	%r12
	.cfi_def_cfa_offset 800
	movl	%ebp, %r9d
	movq	%rbx, %r8
	leaq	.LC3(%rip), %rcx
	movl	$31, %esi
	leaq	.LC4(%rip), %rdi
	call	printf@PLT
	popq	%rax
	.cfi_def_cfa_offset 792
	popq	%rdx
	.cfi_def_cfa_offset 784
	movq	568(%rsp), %rax
	subq	%fs:40, %rax
	jne	.L40
	addq	$752, %rsp
	.cfi_remember_state
	.cfi_def_cfa_offset 32
	popq	%rbx
	.cfi_def_cfa_offset 24
	popq	%rbp
	.cfi_def_cfa_offset 16
	popq	%r12
	.cfi_def_cfa_offset 8
	ret
.L40:
	.cfi_restore_state
	call	__stack_chk_fail@PLT
	.cfi_endproc
.LFE9181:
	.size	_ZN6logger3logEiPKciS1_S1_z.constprop.0, .-_ZN6logger3logEiPKciS1_S1_z.constprop.0
	.section	.rodata.str1.8
	.align 8
.LC5:
	.string	"you cant shout from a parent perspective"
	.align 8
.LC6:
	.string	"src/imp/engine/debug/imgui_helper.cpp"
	.text
	.align 2
	.p2align 4
	.globl	_ZN12ImguiElement5shoutEv
	.type	_ZN12ImguiElement5shoutEv, @function
_ZN12ImguiElement5shoutEv:
.LFB4737:
	.cfi_startproc
	leaq	.LC5(%rip), %r8
	leaq	.LC3(%rip), %rcx
	xorl	%eax, %eax
	movl	$127, %edx
	leaq	.LC6(%rip), %rsi
	movl	$2, %edi
	jmp	_ZN6logger3logEiPKciS1_S1_z.constprop.0
	.cfi_endproc
.LFE4737:
	.size	_ZN12ImguiElement5shoutEv, .-_ZN12ImguiElement5shoutEv
	.p2align 4
	.type	_ZN6logger3logEiPKciS1_S1_z.constprop.1, @function
_ZN6logger3logEiPKciS1_S1_z.constprop.1:
.LFB9182:
	.cfi_startproc
	pushq	%r12
	.cfi_def_cfa_offset 16
	.cfi_offset 12, -16
	pushq	%rbp
	.cfi_def_cfa_offset 24
	.cfi_offset 6, -24
	movl	%edx, %ebp
	pushq	%rbx
	.cfi_def_cfa_offset 32
	.cfi_offset 3, -32
	movq	%rsi, %rbx
	movq	%r8, %rsi
	subq	$752, %rsp
	.cfi_def_cfa_offset 784
	movq	%r9, 616(%rsp)
	testb	%al, %al
	je	.L43
	movaps	%xmm0, 624(%rsp)
	movaps	%xmm1, 640(%rsp)
	movaps	%xmm2, 656(%rsp)
	movaps	%xmm3, 672(%rsp)
	movaps	%xmm4, 688(%rsp)
	movaps	%xmm5, 704(%rsp)
	movaps	%xmm6, 720(%rsp)
	movaps	%xmm7, 736(%rsp)
.L43:
	movq	%fs:40, %rax
	movq	%rax, 568(%rsp)
	xorl	%eax, %eax
	leaq	48(%rsp), %r12
	movabsq	$353518113349, %rax
	movdqa	.LC2(%rip), %xmm0
	movq	%rax, 16(%rsp)
	leaq	24(%rsp), %rdx
	movq	%r12, %rdi
	leaq	784(%rsp), %rax
	movq	%rax, 32(%rsp)
	leaq	576(%rsp), %rax
	movl	$40, 24(%rsp)
	movl	$48, 28(%rsp)
	movq	%rax, 40(%rsp)
	movaps	%xmm0, (%rsp)
	call	vsprintf@PLT
	movq	%rsp, %rdx
	subq	$8, %rsp
	.cfi_def_cfa_offset 792
	movl	%ebp, %r9d
	pushq	%r12
	.cfi_def_cfa_offset 800
	movq	%rbx, %r8
	leaq	.LC3(%rip), %rcx
	xorl	%eax, %eax
	movl	$37, %esi
	leaq	.LC4(%rip), %rdi
	call	printf@PLT
	popq	%rax
	.cfi_def_cfa_offset 792
	popq	%rdx
	.cfi_def_cfa_offset 784
	movq	568(%rsp), %rax
	subq	%fs:40, %rax
	jne	.L46
	addq	$752, %rsp
	.cfi_remember_state
	.cfi_def_cfa_offset 32
	popq	%rbx
	.cfi_def_cfa_offset 24
	popq	%rbp
	.cfi_def_cfa_offset 16
	popq	%r12
	.cfi_def_cfa_offset 8
	ret
.L46:
	.cfi_restore_state
	call	__stack_chk_fail@PLT
	.cfi_endproc
.LFE9182:
	.size	_ZN6logger3logEiPKciS1_S1_z.constprop.1, .-_ZN6logger3logEiPKciS1_S1_z.constprop.1
	.section	.rodata.str1.8
	.align 8
.LC7:
	.string	"basic_string::_M_construct null not valid"
	.text
	.align 2
	.p2align 4
	.type	_ZNSt7__cxx1112basic_stringIcSt11char_traitsIcESaIcEEC2IS3_EEPKcRKS3_.constprop.0, @function
_ZNSt7__cxx1112basic_stringIcSt11char_traitsIcESaIcEEC2IS3_EEPKcRKS3_.constprop.0:
.LFB9183:
	.cfi_startproc
	pushq	%r13
	.cfi_def_cfa_offset 16
	.cfi_offset 13, -16
	leaq	16(%rdi), %r13
	pushq	%r12
	.cfi_def_cfa_offset 24
	.cfi_offset 12, -24
	pushq	%rbp
	.cfi_def_cfa_offset 32
	.cfi_offset 6, -32
	pushq	%rbx
	.cfi_def_cfa_offset 40
	.cfi_offset 3, -40
	subq	$24, %rsp
	.cfi_def_cfa_offset 64
	movq	%fs:40, %rax
	movq	%rax, 8(%rsp)
	xorl	%eax, %eax
	movq	%r13, (%rdi)
	testq	%rsi, %rsi
	je	.L48
	movq	%rdi, %rbx
	movq	%rsi, %rdi
	movq	%rsi, %rbp
	call	strlen@PLT
	movq	%rax, (%rsp)
	movq	%rax, %r12
	cmpq	$15, %rax
	ja	.L60
	cmpq	$1, %rax
	jne	.L52
	movzbl	0(%rbp), %eax
	movb	%al, 16(%rbx)
.L53:
	movq	(%rsp), %rax
	movq	(%rbx), %rdx
	movq	%rax, 8(%rbx)
	movb	$0, (%rdx,%rax)
	movq	8(%rsp), %rax
	subq	%fs:40, %rax
	jne	.L61
	addq	$24, %rsp
	.cfi_remember_state
	.cfi_def_cfa_offset 40
	popq	%rbx
	.cfi_def_cfa_offset 32
	popq	%rbp
	.cfi_def_cfa_offset 24
	popq	%r12
	.cfi_def_cfa_offset 16
	popq	%r13
	.cfi_def_cfa_offset 8
	ret
.L52:
	.cfi_restore_state
	testq	%rax, %rax
	je	.L53
	jmp	.L51
.L60:
	movq	%rsp, %rsi
	xorl	%edx, %edx
	movq	%rbx, %rdi
	call	_ZNSt7__cxx1112basic_stringIcSt11char_traitsIcESaIcEE9_M_createERmm@PLT
	movq	%rax, (%rbx)
	movq	%rax, %r13
	movq	(%rsp), %rax
	movq	%rax, 16(%rbx)
.L51:
	movq	%r12, %rdx
	movq	%rbp, %rsi
	movq	%r13, %rdi
	call	memcpy@PLT
	jmp	.L53
.L61:
	call	__stack_chk_fail@PLT
.L48:
	leaq	.LC7(%rip), %rdi
	call	_ZSt19__throw_logic_errorPKc@PLT
	.cfi_endproc
.LFE9183:
	.size	_ZNSt7__cxx1112basic_stringIcSt11char_traitsIcESaIcEEC2IS3_EEPKcRKS3_.constprop.0, .-_ZNSt7__cxx1112basic_stringIcSt11char_traitsIcESaIcEEC2IS3_EEPKcRKS3_.constprop.0
	.section	.rodata.str1.1
.LC8:
	.string	"%f"
	.text
	.p2align 4
	.type	_ZN9__gnu_cxx12__to_xstringINSt7__cxx1112basic_stringIcSt11char_traitsIcESaIcEEEcEET_PFiPT0_mPKS8_P13__va_list_tagEmSB_z.constprop.0, @function
_ZN9__gnu_cxx12__to_xstringINSt7__cxx1112basic_stringIcSt11char_traitsIcESaIcEEEcEET_PFiPT0_mPKS8_P13__va_list_tagEmSB_z.constprop.0:
.LFB9186:
	.cfi_startproc
	pushq	%rbp
	.cfi_def_cfa_offset 16
	.cfi_offset 6, -16
	movq	%rsp, %rbp
	.cfi_def_cfa_register 6
	pushq	%r13
	pushq	%r12
	.cfi_offset 13, -24
	.cfi_offset 12, -32
	movq	%rdi, %r12
	pushq	%rbx
	subq	$232, %rsp
	.cfi_offset 3, -40
	movq	%r8, -176(%rbp)
	movq	%r9, -168(%rbp)
	testb	%al, %al
	je	.L63
	movaps	%xmm0, -160(%rbp)
	movaps	%xmm1, -144(%rbp)
	movaps	%xmm2, -128(%rbp)
	movaps	%xmm3, -112(%rbp)
	movaps	%xmm4, -96(%rbp)
	movaps	%xmm5, -80(%rbp)
	movaps	%xmm6, -64(%rbp)
	movaps	%xmm7, -48(%rbp)
.L63:
	movq	%fs:40, %rax
	movq	%rax, -216(%rbp)
	xorl	%eax, %eax
	subq	$80, %rsp
	leaq	16(%rbp), %rax
	leaq	.LC8(%rip), %rdx
	leaq	15(%rsp), %rsi
	movq	%rax, -232(%rbp)
	leaq	-240(%rbp), %rcx
	andq	$-16, %rsi
	leaq	-208(%rbp), %rax
	movl	$32, -240(%rbp)
	movq	%rsi, %r13
	movl	$58, %esi
	movl	$48, -236(%rbp)
	movq	%r13, %rdi
	movq	%rax, -224(%rbp)
	call	vsnprintf@PLT
	movslq	%eax, %rdx
	leaq	16(%r12), %rax
	movq	%rax, (%r12)
	movq	%rdx, %rbx
	movq	%rdx, -248(%rbp)
	cmpl	$15, %edx
	jg	.L77
.L64:
	cmpl	$8, %ebx
	jnb	.L65
	testb	$4, %bl
	jne	.L78
	testl	%ebx, %ebx
	je	.L66
	movzbl	0(%r13), %edx
	movb	%dl, (%rax)
	testb	$2, %bl
	jne	.L79
.L66:
	movq	-248(%rbp), %rax
	movq	(%r12), %rdx
	movq	%rax, 8(%r12)
	movb	$0, (%rdx,%rax)
	movq	-216(%rbp), %rax
	subq	%fs:40, %rax
	jne	.L80
	leaq	-24(%rbp), %rsp
	movq	%r12, %rax
	popq	%rbx
	popq	%r12
	popq	%r13
	popq	%rbp
	.cfi_remember_state
	.cfi_def_cfa 7, 8
	ret
	.p2align 4,,10
	.p2align 3
.L65:
	.cfi_restore_state
	movq	0(%r13), %rdx
	leaq	8(%rax), %rdi
	movq	%r13, %rsi
	andq	$-8, %rdi
	movq	%rdx, (%rax)
	movl	%ebx, %edx
	movq	-8(%r13,%rdx), %rcx
	movq	%rcx, -8(%rax,%rdx)
	subq	%rdi, %rax
	leal	(%rbx,%rax), %ecx
	subq	%rax, %rsi
	shrl	$3, %ecx
	rep movsq
	jmp	.L66
	.p2align 4,,10
	.p2align 3
.L77:
	xorl	%edx, %edx
	leaq	-248(%rbp), %rsi
	movq	%r12, %rdi
	call	_ZNSt7__cxx1112basic_stringIcSt11char_traitsIcESaIcEE9_M_createERmm@PLT
	movq	-248(%rbp), %rdx
	movq	%rax, (%r12)
	movq	%rdx, 16(%r12)
	jmp	.L64
	.p2align 4,,10
	.p2align 3
.L78:
	movl	0(%r13), %edx
	movl	%ebx, %ebx
	movl	%edx, (%rax)
	movl	-4(%r13,%rbx), %edx
	movl	%edx, -4(%rax,%rbx)
	jmp	.L66
	.p2align 4,,10
	.p2align 3
.L79:
	movl	%ebx, %ebx
	movzwl	-2(%r13,%rbx), %edx
	movw	%dx, -2(%rax,%rbx)
	jmp	.L66
.L80:
	call	__stack_chk_fail@PLT
	.cfi_endproc
.LFE9186:
	.size	_ZN9__gnu_cxx12__to_xstringINSt7__cxx1112basic_stringIcSt11char_traitsIcESaIcEEEcEET_PFiPT0_mPKS8_P13__va_list_tagEmSB_z.constprop.0, .-_ZN9__gnu_cxx12__to_xstringINSt7__cxx1112basic_stringIcSt11char_traitsIcESaIcEEEcEET_PFiPT0_mPKS8_P13__va_list_tagEmSB_z.constprop.0
	.section	.text._ZNSt24uniform_int_distributionImEclISt26linear_congruential_engineImLm16807ELm0ELm2147483647EEEEmRT_RKNS0_10param_typeE.isra.0,"axG",@progbits,_ZSt7shuffleIPhSt26linear_congruential_engineImLm16807ELm0ELm2147483647EEEvT_S3_OT0_,comdat
	.align 2
	.p2align 4
	.type	_ZNSt24uniform_int_distributionImEclISt26linear_congruential_engineImLm16807ELm0ELm2147483647EEEEmRT_RKNS0_10param_typeE.isra.0, @function
_ZNSt24uniform_int_distributionImEclISt26linear_congruential_engineImLm16807ELm0ELm2147483647EEEEmRT_RKNS0_10param_typeE.isra.0:
.LFB9188:
	.cfi_startproc
	subq	%rsi, %rdx
	pushq	%r15
	.cfi_def_cfa_offset 16
	.cfi_offset 15, -16
	movq	%rdi, %r11
	pushq	%r14
	.cfi_def_cfa_offset 24
	.cfi_offset 14, -24
	movq	%rdx, %r8
	pushq	%r13
	.cfi_def_cfa_offset 32
	.cfi_offset 13, -32
	pushq	%r12
	.cfi_def_cfa_offset 40
	.cfi_offset 12, -40
	pushq	%rbp
	.cfi_def_cfa_offset 48
	.cfi_offset 6, -48
	movq	%rsi, %rbp
	pushq	%rbx
	.cfi_def_cfa_offset 56
	.cfi_offset 3, -56
	movq	(%rdi), %rcx
	cmpq	$2147483644, %rdx
	ja	.L82
	addq	$1, %r8
	movl	$2147483645, %eax
	xorl	%edx, %edx
	movabsq	$8589934597, %rdi
	divq	%r8
	imulq	%rax, %r8
	movq	%rax, %r9
	.p2align 4,,10
	.p2align 3
.L83:
	imulq	$16807, %rcx, %rsi
	movq	%rsi, %rax
	movq	%rsi, %rcx
	mulq	%rdi
	subq	%rdx, %rcx
	shrq	%rcx
	addq	%rdx, %rcx
	shrq	$30, %rcx
	movq	%rcx, %rdx
	salq	$31, %rdx
	subq	%rcx, %rdx
	subq	%rdx, %rsi
	leaq	-1(%rsi), %rax
	movq	%rsi, %rcx
	cmpq	%rax, %r8
	jbe	.L83
	xorl	%edx, %edx
	movq	%rsi, (%r11)
	divq	%r9
.L84:
	popq	%rbx
	.cfi_remember_state
	.cfi_def_cfa_offset 48
	addq	%rbp, %rax
	popq	%rbp
	.cfi_def_cfa_offset 40
	popq	%r12
	.cfi_def_cfa_offset 32
	popq	%r13
	.cfi_def_cfa_offset 24
	popq	%r14
	.cfi_def_cfa_offset 16
	popq	%r15
	.cfi_def_cfa_offset 8
	ret
.L82:
	.cfi_restore_state
	cmpq	$2147483645, %rdx
	je	.L85
	shrq	%rdx
	movl	$2147483645, %r13d
	movabsq	$-9223372028264841207, %rsi
	movabsq	$4611686007689969669, %r15
	movabsq	$8589934597, %rdi
	movq	%rdx, %rax
	mulq	%rsi
	movabsq	$4611686027017322509, %rsi
	shrq	$29, %rdx
	movq	%rdx, %r12
	movq	%r8, %rdx
	shrq	$2, %rdx
	leaq	1(%r12), %r14
	movq	%rdx, %rax
	mulq	%rsi
	shrq	$58, %rdx
	leaq	1(%rdx), %rax
	movq	%rax, -8(%rsp)
.L98:
	cmpq	%r15, %r8
	ja	.L86
.L101:
	movq	%r13, %rax
	xorl	%edx, %edx
	movq	%r14, %r9
	divq	%r14
	imulq	%rax, %r9
	movq	%rax, %r10
	.p2align 4,,10
	.p2align 3
.L87:
	imulq	$16807, %rcx, %rsi
	movq	%rsi, %rax
	mulq	%rdi
	movq	%rsi, %rax
	subq	%rdx, %rax
	shrq	%rax
	leaq	(%rdx,%rax), %rcx
	shrq	$30, %rcx
	movq	%rcx, %rax
	salq	$31, %rax
	subq	%rcx, %rax
	subq	%rax, %rsi
	leaq	-1(%rsi), %rax
	movq	%rsi, %rcx
	cmpq	%rax, %r9
	jbe	.L87
	xorl	%edx, %edx
	divq	%r10
.L88:
	imulq	$16807, %rcx, %r9
	movq	%rax, %rsi
	salq	$30, %rsi
	subq	%rax, %rsi
	movq	%r9, %rax
	addq	%rsi, %rsi
	mulq	%rdi
	movq	%r9, %rax
	subq	%rdx, %rax
	shrq	%rax
	leaq	(%rdx,%rax), %rcx
	shrq	$30, %rcx
	movq	%rcx, %rax
	salq	$31, %rax
	subq	%rcx, %rax
	movq	%r9, %rcx
	subq	%rax, %rcx
	leaq	-1(%rcx,%rsi), %rax
	movq	%rcx, (%r11)
	cmpq	%rax, %r8
	jb	.L98
	cmpq	%rax, %rsi
	jbe	.L84
	cmpq	%r15, %r8
	jbe	.L101
.L86:
	cmpq	$2147483645, %r12
	je	.L89
	movq	-8(%rsp), %rsi
	movq	%r13, %rax
	xorl	%edx, %edx
	divq	%rsi
	imulq	%rax, %rsi
	movq	%rax, %rbx
	movq	%rsi, %r9
	.p2align 4,,10
	.p2align 3
.L90:
	imulq	$16807, %rcx, %rsi
	movq	%rsi, %rax
	mulq	%rdi
	movq	%rsi, %rax
	subq	%rdx, %rax
	shrq	%rax
	leaq	(%rdx,%rax), %rcx
	shrq	$30, %rcx
	movq	%rcx, %rax
	salq	$31, %rax
	subq	%rcx, %rax
	subq	%rax, %rsi
	movq	%rsi, %rcx
	leaq	-1(%rsi), %rsi
	cmpq	%rsi, %r9
	jbe	.L90
	imulq	$16807, %rcx, %r10
	movq	%r10, %rax
	mulq	%rdi
	movq	%r10, %rax
	subq	%rdx, %rax
	shrq	%rax
	leaq	(%rdx,%rax), %rcx
	xorl	%edx, %edx
	shrq	$30, %rcx
	movq	%rcx, %rax
	salq	$31, %rax
	subq	%rcx, %rax
	movq	%r10, %rcx
	subq	%rax, %rcx
	movq	%rsi, %rax
	divq	%rbx
	movq	%rcx, (%r11)
	leaq	-1(%rcx), %rdx
	movq	%rax, %rsi
	salq	$30, %rax
	subq	%rsi, %rax
	leaq	(%rax,%rax), %rax
	addq	%rdx, %rax
	setc	%dl
	movzbl	%dl, %edx
	cmpq	%rax, %r12
	jb	.L90
	testq	%rdx, %rdx
	jne	.L90
	jmp	.L88
.L89:
	imulq	$16807, %rcx, %rsi
	movq	%rsi, %rax
	mulq	%rdi
	movq	%rsi, %rax
	subq	%rdx, %rax
	shrq	%rax
	leaq	(%rdx,%rax), %rcx
	shrq	$30, %rcx
	movq	%rcx, %rax
	salq	$31, %rax
	subq	%rcx, %rax
	subq	%rax, %rsi
	movq	%rsi, %rcx
	leaq	-1(%rsi), %rax
	jmp	.L88
.L85:
	imulq	$16807, %rcx, %rcx
	movabsq	$8589934597, %rdx
	movq	%rcx, %rax
	mulq	%rdx
	movq	%rcx, %rax
	subq	%rdx, %rax
	shrq	%rax
	addq	%rax, %rdx
	shrq	$30, %rdx
	movq	%rdx, %rax
	salq	$31, %rax
	subq	%rdx, %rax
	movq	%rcx, %rdx
	subq	%rax, %rdx
	leaq	-1(%rdx), %rax
	movq	%rdx, (%rdi)
	popq	%rbx
	.cfi_def_cfa_offset 48
	addq	%rbp, %rax
	popq	%rbp
	.cfi_def_cfa_offset 40
	popq	%r12
	.cfi_def_cfa_offset 32
	popq	%r13
	.cfi_def_cfa_offset 24
	popq	%r14
	.cfi_def_cfa_offset 16
	popq	%r15
	.cfi_def_cfa_offset 8
	ret
	.cfi_endproc
.LFE9188:
	.size	_ZNSt24uniform_int_distributionImEclISt26linear_congruential_engineImLm16807ELm0ELm2147483647EEEEmRT_RKNS0_10param_typeE.isra.0, .-_ZNSt24uniform_int_distributionImEclISt26linear_congruential_engineImLm16807ELm0ELm2147483647EEEEmRT_RKNS0_10param_typeE.isra.0
	.section	.rodata.str1.1
.LC10:
	.string	"Invalid log mode [mode = %d]"
	.section	.rodata.str1.8
	.align 8
.LC11:
	.string	"src/imp/engine/debug/logger.cpp"
	.text
	.p2align 4
	.globl	_ZN6logger3logEiPKciS1_S1_z
	.type	_ZN6logger3logEiPKciS1_S1_z, @function
_ZN6logger3logEiPKciS1_S1_z:
.LFB12:
	.cfi_startproc
	pushq	%r14
	.cfi_def_cfa_offset 16
	.cfi_offset 14, -16
	pushq	%r13
	.cfi_def_cfa_offset 24
	.cfi_offset 13, -24
	movq	%rcx, %r13
	pushq	%r12
	.cfi_def_cfa_offset 32
	.cfi_offset 12, -32
	movl	%edx, %r12d
	pushq	%rbp
	.cfi_def_cfa_offset 40
	.cfi_offset 6, -40
	movq	%rsi, %rbp
	pushq	%rbx
	.cfi_def_cfa_offset 48
	.cfi_offset 3, -48
	movslq	%edi, %rbx
	subq	$768, %rsp
	.cfi_def_cfa_offset 816
	movq	%r9, 632(%rsp)
	testb	%al, %al
	je	.L103
	movaps	%xmm0, 640(%rsp)
	movaps	%xmm1, 656(%rsp)
	movaps	%xmm2, 672(%rsp)
	movaps	%xmm3, 688(%rsp)
	movaps	%xmm4, 704(%rsp)
	movaps	%xmm5, 720(%rsp)
	movaps	%xmm6, 736(%rsp)
	movaps	%xmm7, 752(%rsp)
.L103:
	movq	%fs:40, %rax
	movq	%rax, 584(%rsp)
	xorl	%eax, %eax
	movdqa	.LC2(%rip), %xmm0
	movabsq	$353518113349, %rax
	movl	$31, 8(%rsp)
	movq	%rax, 32(%rsp)
	movq	.LC9(%rip), %rax
	movaps	%xmm0, 16(%rsp)
	movq	%rax, (%rsp)
	cmpl	$2, %ebx
	jg	.L108
	leaq	816(%rsp), %rax
	leaq	64(%rsp), %r14
	movq	%r8, %rsi
	movl	$40, 40(%rsp)
	movq	%rax, 48(%rsp)
	leaq	40(%rsp), %rdx
	leaq	592(%rsp), %rax
	movq	%r14, %rdi
	movl	$48, 44(%rsp)
	movq	%rax, 56(%rsp)
	call	vsprintf@PLT
	movl	(%rsp,%rbx,4), %esi
	leaq	16(%rsp,%rbx,8), %rdx
	movl	%r12d, %r9d
	subq	$8, %rsp
	.cfi_def_cfa_offset 824
	movq	%rbp, %r8
	movq	%r13, %rcx
	xorl	%eax, %eax
	pushq	%r14
	.cfi_def_cfa_offset 832
	leaq	.LC4(%rip), %rdi
	call	printf@PLT
	popq	%rax
	.cfi_def_cfa_offset 824
	popq	%rdx
	.cfi_def_cfa_offset 816
.L102:
	movq	584(%rsp), %rax
	subq	%fs:40, %rax
	jne	.L109
	addq	$768, %rsp
	.cfi_remember_state
	.cfi_def_cfa_offset 48
	popq	%rbx
	.cfi_def_cfa_offset 40
	popq	%rbp
	.cfi_def_cfa_offset 32
	popq	%r12
	.cfi_def_cfa_offset 24
	popq	%r13
	.cfi_def_cfa_offset 16
	popq	%r14
	.cfi_def_cfa_offset 8
	ret
	.p2align 4,,10
	.p2align 3
.L108:
	.cfi_restore_state
	movl	%ebx, %r9d
	movl	$10, %edx
	movl	$2, %edi
	xorl	%eax, %eax
	leaq	.LC10(%rip), %r8
	leaq	.LC3(%rip), %rcx
	leaq	.LC11(%rip), %rsi
	call	_ZN6logger3logEiPKciS1_S1_z.constprop.0
	jmp	.L102
.L109:
	call	__stack_chk_fail@PLT
	.cfi_endproc
.LFE12:
	.size	_ZN6logger3logEiPKciS1_S1_z, .-_ZN6logger3logEiPKciS1_S1_z
	.p2align 4
	.globl	_ZN3gle5clearEv
	.type	_ZN3gle5clearEv, @function
_ZN3gle5clearEv:
.LFB25:
	.cfi_startproc
	subq	$8, %rsp
	.cfi_def_cfa_offset 16
	.p2align 4,,10
	.p2align 3
.L111:
	call	glGetError@PLT
	testl	%eax, %eax
	jne	.L111
	addq	$8, %rsp
	.cfi_def_cfa_offset 8
	ret
	.cfi_endproc
.LFE25:
	.size	_ZN3gle5clearEv, .-_ZN3gle5clearEv
	.section	.rodata.str1.1
.LC12:
	.string	"OPENGL ERROR: (%d)"
	.section	.rodata.str1.8
	.align 8
.LC13:
	.string	"src/imp/engine/debug/error.cpp"
	.text
	.p2align 4
	.globl	_ZN3gle5checkEv
	.type	_ZN3gle5checkEv, @function
_ZN3gle5checkEv:
.LFB26:
	.cfi_startproc
	pushq	%rbp
	.cfi_def_cfa_offset 16
	.cfi_offset 6, -16
	leaq	.LC3(%rip), %rbp
	pushq	%rbx
	.cfi_def_cfa_offset 24
	.cfi_offset 3, -24
	leaq	.LC13(%rip), %rbx
	subq	$8, %rsp
	.cfi_def_cfa_offset 32
	jmp	.L116
	.p2align 4,,10
	.p2align 3
.L118:
	leaq	.LC12(%rip), %r8
	movq	%rbp, %rcx
	movq	%rbx, %rsi
	xorl	%eax, %eax
	movl	$12, %edx
	movl	$2, %edi
	call	_ZN6logger3logEiPKciS1_S1_z.constprop.0
.L116:
	call	glGetError@PLT
	movl	%eax, %r9d
	testl	%eax, %eax
	jne	.L118
	addq	$8, %rsp
	.cfi_def_cfa_offset 24
	popq	%rbx
	.cfi_def_cfa_offset 16
	popq	%rbp
	.cfi_def_cfa_offset 8
	ret
	.cfi_endproc
.LFE26:
	.size	_ZN3gle5checkEv, .-_ZN3gle5checkEv
	.section	.text.unlikely,"ax",@progbits
	.align 2
.LCOLDB14:
	.text
.LHOTB14:
	.align 2
	.p2align 4
	.globl	_ZN6WindowC2EiiN3glm3vecILi3EfLNS0_9qualifierE0EEENSt7__cxx1112basic_stringIcSt11char_traitsIcESaIcEEE
	.type	_ZN6WindowC2EiiN3glm3vecILi3EfLNS0_9qualifierE0EEENSt7__cxx1112basic_stringIcSt11char_traitsIcESaIcEEE, @function
_ZN6WindowC2EiiN3glm3vecILi3EfLNS0_9qualifierE0EEENSt7__cxx1112basic_stringIcSt11char_traitsIcESaIcEEE:
.LFB2925:
	.cfi_startproc
	.cfi_personality 0x9b,DW.ref.__gxx_personality_v0
	.cfi_lsda 0x1b,.LLSDA2925
	pushq	%r12
	.cfi_def_cfa_offset 16
	.cfi_offset 12, -16
	movl	%esi, %r8d
	movq	%rcx, %rsi
	pushq	%rbp
	.cfi_def_cfa_offset 24
	.cfi_offset 6, -24
	movd	%r8d, %xmm2
	pushq	%rbx
	.cfi_def_cfa_offset 32
	.cfi_offset 3, -32
	movq	%rdi, %rbx
	leaq	16(%rdi), %rdi
	leaq	32(%rbx), %rbp
	subq	$16, %rsp
	.cfi_def_cfa_offset 48
	movq	%rbp, 16(%rbx)
	movq	%xmm0, (%rsp)
	movd	%edx, %xmm0
	movq	$0, 24(%rbx)
	punpckldq	%xmm2, %xmm0
	movb	$0, 32(%rbx)
	movq	%xmm0, 8(%rbx)
	movss	%xmm1, 8(%rsp)
.LEHB0:
	call	_ZNSt7__cxx1112basic_stringIcSt11char_traitsIcESaIcEE9_M_assignERKS4_@PLT
.LEHE0:
	movq	(%rsp), %rax
	movq	%rax, 48(%rbx)
	movl	8(%rsp), %eax
	movl	%eax, 56(%rbx)
	addq	$16, %rsp
	.cfi_remember_state
	.cfi_def_cfa_offset 32
	popq	%rbx
	.cfi_def_cfa_offset 24
	popq	%rbp
	.cfi_def_cfa_offset 16
	popq	%r12
	.cfi_def_cfa_offset 8
	ret
.L122:
	.cfi_restore_state
	movq	%rax, %r12
	jmp	.L120
	.globl	__gxx_personality_v0
	.section	.gcc_except_table,"a",@progbits
.LLSDA2925:
	.byte	0xff
	.byte	0xff
	.byte	0x1
	.uleb128 .LLSDACSE2925-.LLSDACSB2925
.LLSDACSB2925:
	.uleb128 .LEHB0-.LFB2925
	.uleb128 .LEHE0-.LEHB0
	.uleb128 .L122-.LFB2925
	.uleb128 0
.LLSDACSE2925:
	.text
	.cfi_endproc
	.section	.text.unlikely
	.cfi_startproc
	.cfi_personality 0x9b,DW.ref.__gxx_personality_v0
	.cfi_lsda 0x1b,.LLSDAC2925
	.type	_ZN6WindowC2EiiN3glm3vecILi3EfLNS0_9qualifierE0EEENSt7__cxx1112basic_stringIcSt11char_traitsIcESaIcEEE.cold, @function
_ZN6WindowC2EiiN3glm3vecILi3EfLNS0_9qualifierE0EEENSt7__cxx1112basic_stringIcSt11char_traitsIcESaIcEEE.cold:
.LFSB2925:
.L120:
	.cfi_def_cfa_offset 48
	.cfi_offset 3, -32
	.cfi_offset 6, -24
	.cfi_offset 12, -16
	movq	16(%rbx), %rdi
	cmpq	%rdi, %rbp
	je	.L121
	movq	32(%rbx), %rsi
	addq	$1, %rsi
	call	_ZdlPvm@PLT
.L121:
	movq	%r12, %rdi
.LEHB1:
	call	_Unwind_Resume@PLT
.LEHE1:
	.cfi_endproc
.LFE2925:
	.section	.gcc_except_table
.LLSDAC2925:
	.byte	0xff
	.byte	0xff
	.byte	0x1
	.uleb128 .LLSDACSEC2925-.LLSDACSBC2925
.LLSDACSBC2925:
	.uleb128 .LEHB1-.LCOLDB14
	.uleb128 .LEHE1-.LEHB1
	.uleb128 0
	.uleb128 0
.LLSDACSEC2925:
	.section	.text.unlikely
	.text
	.size	_ZN6WindowC2EiiN3glm3vecILi3EfLNS0_9qualifierE0EEENSt7__cxx1112basic_stringIcSt11char_traitsIcESaIcEEE, .-_ZN6WindowC2EiiN3glm3vecILi3EfLNS0_9qualifierE0EEENSt7__cxx1112basic_stringIcSt11char_traitsIcESaIcEEE
	.section	.text.unlikely
	.size	_ZN6WindowC2EiiN3glm3vecILi3EfLNS0_9qualifierE0EEENSt7__cxx1112basic_stringIcSt11char_traitsIcESaIcEEE.cold, .-_ZN6WindowC2EiiN3glm3vecILi3EfLNS0_9qualifierE0EEENSt7__cxx1112basic_stringIcSt11char_traitsIcESaIcEEE.cold
.LCOLDE14:
	.text
.LHOTE14:
	.globl	_ZN6WindowC1EiiN3glm3vecILi3EfLNS0_9qualifierE0EEENSt7__cxx1112basic_stringIcSt11char_traitsIcESaIcEEE
	.set	_ZN6WindowC1EiiN3glm3vecILi3EfLNS0_9qualifierE0EEENSt7__cxx1112basic_stringIcSt11char_traitsIcESaIcEEE,_ZN6WindowC2EiiN3glm3vecILi3EfLNS0_9qualifierE0EEENSt7__cxx1112basic_stringIcSt11char_traitsIcESaIcEEE
	.section	.rodata.str1.1
.LC15:
	.string	"Unable to start GLFW"
	.section	.rodata.str1.8
	.align 8
.LC16:
	.string	"src/imp/engine/visual/window.cpp"
	.section	.rodata.str1.1
.LC17:
	.string	"GLEW has failed to initialize"
	.text
	.align 2
	.p2align 4
	.globl	_ZN6Window6createEv
	.type	_ZN6Window6createEv, @function
_ZN6Window6createEv:
.LFB2927:
	.cfi_startproc
	pushq	%rbx
	.cfi_def_cfa_offset 16
	.cfi_offset 3, -16
	movq	%rdi, %rbx
	call	glfwInit@PLT
	testl	%eax, %eax
	je	.L132
	movl	$3, %esi
	movl	$139266, %edi
	call	glfwWindowHint@PLT
	movl	$3, %esi
	movl	$139267, %edi
	call	glfwWindowHint@PLT
	movl	$204801, %esi
	movl	$139272, %edi
	call	glfwWindowHint@PLT
	movl	12(%rbx), %edi
	movq	16(%rbx), %rdx
	xorl	%r8d, %r8d
	movl	8(%rbx), %esi
	xorl	%ecx, %ecx
	call	glfwCreateWindow@PLT
	movq	%rax, (%rbx)
	movq	%rax, %rdi
	testq	%rax, %rax
	je	.L131
	call	glfwMakeContextCurrent@PLT
	call	glewInit@PLT
	testl	%eax, %eax
	jne	.L133
	movl	$2929, %edi
	call	glEnable@PLT
	movss	48(%rbx), %xmm0
	movss	56(%rbx), %xmm2
	movss	52(%rbx), %xmm1
	movss	.LC18(%rip), %xmm3
	call	glClearColor@PLT
	movl	$1, %eax
	popq	%rbx
	.cfi_remember_state
	.cfi_def_cfa_offset 8
	ret
	.p2align 4,,10
	.p2align 3
.L132:
	.cfi_restore_state
	leaq	.LC15(%rip), %r8
	leaq	.LC3(%rip), %rcx
	movl	$17, %edx
	movl	$2, %edi
	leaq	.LC16(%rip), %rsi
	call	_ZN6logger3logEiPKciS1_S1_z.constprop.0
	xorl	%eax, %eax
	popq	%rbx
	.cfi_remember_state
	.cfi_def_cfa_offset 8
	ret
	.p2align 4,,10
	.p2align 3
.L133:
	.cfi_restore_state
	movl	$2, %edi
	leaq	.LC17(%rip), %r8
	xorl	%eax, %eax
	movl	$41, %edx
	leaq	.LC3(%rip), %rcx
	leaq	.LC16(%rip), %rsi
	call	_ZN6logger3logEiPKciS1_S1_z.constprop.0
	movq	(%rbx), %rdi
.L131:
	call	glfwDestroyWindow@PLT
	call	glfwTerminate@PLT
	xorl	%eax, %eax
	popq	%rbx
	.cfi_def_cfa_offset 8
	ret
	.cfi_endproc
.LFE2927:
	.size	_ZN6Window6createEv, .-_ZN6Window6createEv
	.align 2
	.p2align 4
	.globl	_ZN6Window5clearEv
	.type	_ZN6Window5clearEv, @function
_ZN6Window5clearEv:
.LFB2928:
	.cfi_startproc
	movl	$16640, %edi
	jmp	glClear@PLT
	.cfi_endproc
.LFE2928:
	.size	_ZN6Window5clearEv, .-_ZN6Window5clearEv
	.align 2
	.p2align 4
	.globl	_ZN6Window7endLoopEv
	.type	_ZN6Window7endLoopEv, @function
_ZN6Window7endLoopEv:
.LFB2929:
	.cfi_startproc
	subq	$8, %rsp
	.cfi_def_cfa_offset 16
	movq	(%rdi), %rdi
	call	glfwSwapBuffers@PLT
	addq	$8, %rsp
	.cfi_def_cfa_offset 8
	jmp	glfwPollEvents@PLT
	.cfi_endproc
.LFE2929:
	.size	_ZN6Window7endLoopEv, .-_ZN6Window7endLoopEv
	.align 2
	.p2align 4
	.globl	_ZN6Window11shouldCloseEv
	.type	_ZN6Window11shouldCloseEv, @function
_ZN6Window11shouldCloseEv:
.LFB2930:
	.cfi_startproc
	subq	$8, %rsp
	.cfi_def_cfa_offset 16
	movq	(%rdi), %rdi
	call	glfwWindowShouldClose@PLT
	testl	%eax, %eax
	setne	%al
	addq	$8, %rsp
	.cfi_def_cfa_offset 8
	ret
	.cfi_endproc
.LFE2930:
	.size	_ZN6Window11shouldCloseEv, .-_ZN6Window11shouldCloseEv
	.align 2
	.p2align 4
	.globl	_ZN6Window9terminateEv
	.type	_ZN6Window9terminateEv, @function
_ZN6Window9terminateEv:
.LFB2931:
	.cfi_startproc
	subq	$8, %rsp
	.cfi_def_cfa_offset 16
	movq	(%rdi), %rdi
	call	glfwDestroyWindow@PLT
	addq	$8, %rsp
	.cfi_def_cfa_offset 8
	jmp	glfwTerminate@PLT
	.cfi_endproc
.LFE2931:
	.size	_ZN6Window9terminateEv, .-_ZN6Window9terminateEv
	.align 2
	.p2align 4
	.globl	_ZN6Window9getHeightEv
	.type	_ZN6Window9getHeightEv, @function
_ZN6Window9getHeightEv:
.LFB2932:
	.cfi_startproc
	movl	8(%rdi), %eax
	ret
	.cfi_endproc
.LFE2932:
	.size	_ZN6Window9getHeightEv, .-_ZN6Window9getHeightEv
	.align 2
	.p2align 4
	.globl	_ZN6Window8getWidthEv
	.type	_ZN6Window8getWidthEv, @function
_ZN6Window8getWidthEv:
.LFB2933:
	.cfi_startproc
	movl	12(%rdi), %eax
	ret
	.cfi_endproc
.LFE2933:
	.size	_ZN6Window8getWidthEv, .-_ZN6Window8getWidthEv
	.align 2
	.p2align 4
	.globl	_ZN6Window7getNameB5cxx11Ev
	.type	_ZN6Window7getNameB5cxx11Ev, @function
_ZN6Window7getNameB5cxx11Ev:
.LFB2934:
	.cfi_startproc
	pushq	%r13
	.cfi_def_cfa_offset 16
	.cfi_offset 13, -16
	pushq	%r12
	.cfi_def_cfa_offset 24
	.cfi_offset 12, -24
	movq	%rdi, %r12
	addq	$16, %rdi
	pushq	%rbp
	.cfi_def_cfa_offset 32
	.cfi_offset 6, -32
	subq	$16, %rsp
	.cfi_def_cfa_offset 48
	movq	24(%rsi), %r13
	movq	%fs:40, %rax
	movq	%rax, 8(%rsp)
	xorl	%eax, %eax
	movq	%rdi, (%r12)
	movq	16(%rsi), %rbp
	movq	%rbp, %rax
	addq	%r13, %rax
	je	.L144
	testq	%rbp, %rbp
	je	.L160
.L144:
	movq	%r13, (%rsp)
	cmpq	$15, %r13
	ja	.L161
	cmpq	$1, %r13
	jne	.L147
	movzbl	0(%rbp), %eax
	movb	%al, 16(%r12)
.L148:
	movq	%r13, 8(%r12)
	movb	$0, (%rdi,%r13)
	movq	8(%rsp), %rax
	subq	%fs:40, %rax
	jne	.L162
	addq	$16, %rsp
	.cfi_remember_state
	.cfi_def_cfa_offset 32
	movq	%r12, %rax
	popq	%rbp
	.cfi_def_cfa_offset 24
	popq	%r12
	.cfi_def_cfa_offset 16
	popq	%r13
	.cfi_def_cfa_offset 8
	ret
	.p2align 4,,10
	.p2align 3
.L147:
	.cfi_restore_state
	testq	%r13, %r13
	je	.L148
	jmp	.L146
	.p2align 4,,10
	.p2align 3
.L161:
	movq	%r12, %rdi
	movq	%rsp, %rsi
	xorl	%edx, %edx
	call	_ZNSt7__cxx1112basic_stringIcSt11char_traitsIcESaIcEE9_M_createERmm@PLT
	movq	%rax, (%r12)
	movq	%rax, %rdi
	movq	(%rsp), %rax
	movq	%rax, 16(%r12)
.L146:
	movq	%r13, %rdx
	movq	%rbp, %rsi
	call	memcpy@PLT
	movq	(%rsp), %r13
	movq	(%r12), %rdi
	jmp	.L148
.L160:
	leaq	.LC7(%rip), %rdi
	call	_ZSt19__throw_logic_errorPKc@PLT
.L162:
	call	__stack_chk_fail@PLT
	.cfi_endproc
.LFE2934:
	.size	_ZN6Window7getNameB5cxx11Ev, .-_ZN6Window7getNameB5cxx11Ev
	.align 2
	.p2align 4
	.globl	_ZN6Window13SetClearColorEN3glm3vecILi3EfLNS0_9qualifierE0EEE
	.type	_ZN6Window13SetClearColorEN3glm3vecILi3EfLNS0_9qualifierE0EEE, @function
_ZN6Window13SetClearColorEN3glm3vecILi3EfLNS0_9qualifierE0EEE:
.LFB2935:
	.cfi_startproc
	movss	%xmm1, -16(%rsp)
	movl	-16(%rsp), %eax
	movaps	%xmm1, %xmm2
	movss	.LC18(%rip), %xmm3
	movq	%xmm0, -24(%rsp)
	movss	-20(%rsp), %xmm1
	movl	%eax, 56(%rdi)
	movq	%xmm0, 48(%rdi)
	movss	-24(%rsp), %xmm0
	jmp	glClearColor@PLT
	.cfi_endproc
.LFE2935:
	.size	_ZN6Window13SetClearColorEN3glm3vecILi3EfLNS0_9qualifierE0EEE, .-_ZN6Window13SetClearColorEN3glm3vecILi3EfLNS0_9qualifierE0EEE
	.align 2
	.p2align 4
	.globl	_ZN6Window11getWindowIDEv
	.type	_ZN6Window11getWindowIDEv, @function
_ZN6Window11getWindowIDEv:
.LFB2936:
	.cfi_startproc
	movq	(%rdi), %rax
	ret
	.cfi_endproc
.LFE2936:
	.size	_ZN6Window11getWindowIDEv, .-_ZN6Window11getWindowIDEv
	.align 2
	.p2align 4
	.globl	_ZN6Window7getTimeEv
	.type	_ZN6Window7getTimeEv, @function
_ZN6Window7getTimeEv:
.LFB2937:
	.cfi_startproc
	subq	$8, %rsp
	.cfi_def_cfa_offset 16
	call	glfwGetTime@PLT
	addq	$8, %rsp
	.cfi_def_cfa_offset 8
	cvtsd2ss	%xmm0, %xmm0
	ret
	.cfi_endproc
.LFE2937:
	.size	_ZN6Window7getTimeEv, .-_ZN6Window7getTimeEv
	.section	.rodata.str1.8
	.align 8
.LC19:
	.string	"OpenGL failed to create this VertexBuffer"
	.align 8
.LC20:
	.string	"src/imp/engine/visual/renderer/vertex_buffer.cpp"
	.text
	.align 2
	.p2align 4
	.globl	_ZN12VertexBuffer4initEv
	.type	_ZN12VertexBuffer4initEv, @function
_ZN12VertexBuffer4initEv:
.LFB2938:
	.cfi_startproc
	pushq	%r12
	.cfi_def_cfa_offset 16
	.cfi_offset 12, -16
	pushq	%rbp
	.cfi_def_cfa_offset 24
	.cfi_offset 6, -24
	movq	%rdi, %rbp
	pushq	%rbx
	.cfi_def_cfa_offset 32
	.cfi_offset 3, -32
	subq	$16, %rsp
	.cfi_def_cfa_offset 48
	movq	%fs:40, %rax
	movq	%rax, 8(%rsp)
	xorl	%eax, %eax
	.p2align 4,,10
	.p2align 3
.L168:
	call	glGetError@PLT
	testl	%eax, %eax
	jne	.L168
	movq	%rbp, %rsi
	movl	$1, %edi
	leaq	.LC3(%rip), %r12
	call	*__glewGenBuffers(%rip)
	leaq	.LC13(%rip), %rbx
	jmp	.L170
	.p2align 4,,10
	.p2align 3
.L193:
	leaq	.LC12(%rip), %r8
	movq	%r12, %rcx
	movq	%rbx, %rsi
	xorl	%eax, %eax
	movl	$12, %edx
	movl	$2, %edi
	call	_ZN6logger3logEiPKciS1_S1_z.constprop.0
.L170:
	call	glGetError@PLT
	movl	%eax, %r9d
	testl	%eax, %eax
	jne	.L193
	.p2align 4,,10
	.p2align 3
.L169:
	call	glGetError@PLT
	testl	%eax, %eax
	jne	.L169
	movl	0(%rbp), %esi
	movl	$34962, %edi
	leaq	.LC3(%rip), %r12
	leaq	.LC13(%rip), %rbx
	call	*__glewBindBuffer(%rip)
	jmp	.L172
	.p2align 4,,10
	.p2align 3
.L194:
	leaq	.LC12(%rip), %r8
	movq	%r12, %rcx
	movq	%rbx, %rsi
	xorl	%eax, %eax
	movl	$12, %edx
	movl	$2, %edi
	call	_ZN6logger3logEiPKciS1_S1_z.constprop.0
.L172:
	call	glGetError@PLT
	movl	%eax, %r9d
	testl	%eax, %eax
	jne	.L194
	.p2align 4,,10
	.p2align 3
.L171:
	call	glGetError@PLT
	testl	%eax, %eax
	jne	.L171
	movl	16(%rbp), %ecx
	movq	8(%rbp), %rsi
	xorl	%edx, %edx
	movl	$34962, %edi
	leaq	.LC3(%rip), %r12
	leaq	.LC13(%rip), %rbx
	call	*__glewBufferData(%rip)
	jmp	.L174
	.p2align 4,,10
	.p2align 3
.L195:
	leaq	.LC12(%rip), %r8
	movq	%r12, %rcx
	movq	%rbx, %rsi
	xorl	%eax, %eax
	movl	$12, %edx
	movl	$2, %edi
	call	_ZN6logger3logEiPKciS1_S1_z.constprop.0
.L174:
	call	glGetError@PLT
	movl	%eax, %r9d
	testl	%eax, %eax
	jne	.L195
	movl	$0, 4(%rsp)
	.p2align 4,,10
	.p2align 3
.L175:
	call	glGetError@PLT
	testl	%eax, %eax
	jne	.L175
	leaq	4(%rsp), %rdx
	movl	$34660, %esi
	movl	$34962, %edi
	leaq	.LC3(%rip), %r12
	leaq	.LC13(%rip), %rbx
	call	*__glewGetBufferParameteriv(%rip)
	jmp	.L177
	.p2align 4,,10
	.p2align 3
.L196:
	leaq	.LC12(%rip), %r8
	movq	%r12, %rcx
	movq	%rbx, %rsi
	xorl	%eax, %eax
	movl	$12, %edx
	movl	$2, %edi
	call	_ZN6logger3logEiPKciS1_S1_z.constprop.0
.L177:
	call	glGetError@PLT
	movl	%eax, %r9d
	testl	%eax, %eax
	jne	.L196
	movslq	4(%rsp), %rax
	cmpq	%rax, 8(%rbp)
	je	.L179
	movq	%rbp, %rsi
	movl	$1, %edi
	call	*__glewDeleteBuffers(%rip)
	leaq	.LC19(%rip), %r8
	xorl	%eax, %eax
	leaq	.LC3(%rip), %rcx
	movl	$14, %edx
	leaq	.LC20(%rip), %rsi
	movl	$2, %edi
	call	_ZN6logger3logEiPKciS1_S1_z.constprop.0
	.p2align 4,,10
	.p2align 3
.L179:
	call	glGetError@PLT
	testl	%eax, %eax
	jne	.L179
	xorl	%esi, %esi
	movl	$34962, %edi
	leaq	.LC3(%rip), %rbx
	call	*__glewBindBuffer(%rip)
	leaq	.LC13(%rip), %rbp
	jmp	.L181
	.p2align 4,,10
	.p2align 3
.L197:
	leaq	.LC12(%rip), %r8
	movq	%rbx, %rcx
	movq	%rbp, %rsi
	xorl	%eax, %eax
	movl	$12, %edx
	movl	$2, %edi
	call	_ZN6logger3logEiPKciS1_S1_z.constprop.0
.L181:
	call	glGetError@PLT
	movl	%eax, %r9d
	testl	%eax, %eax
	jne	.L197
	movq	8(%rsp), %rax
	subq	%fs:40, %rax
	jne	.L198
	addq	$16, %rsp
	.cfi_remember_state
	.cfi_def_cfa_offset 32
	popq	%rbx
	.cfi_def_cfa_offset 24
	popq	%rbp
	.cfi_def_cfa_offset 16
	popq	%r12
	.cfi_def_cfa_offset 8
	ret
.L198:
	.cfi_restore_state
	call	__stack_chk_fail@PLT
	.cfi_endproc
.LFE2938:
	.size	_ZN12VertexBuffer4initEv, .-_ZN12VertexBuffer4initEv
	.align 2
	.p2align 4
	.globl	_ZN12VertexBufferC2Ejj
	.type	_ZN12VertexBufferC2Ejj, @function
_ZN12VertexBufferC2Ejj:
.LFB2940:
	.cfi_startproc
	movl	%esi, %eax
	movl	%edx, 16(%rdi)
	movq	%rax, 8(%rdi)
	jmp	_ZN12VertexBuffer4initEv
	.cfi_endproc
.LFE2940:
	.size	_ZN12VertexBufferC2Ejj, .-_ZN12VertexBufferC2Ejj
	.globl	_ZN12VertexBufferC1Ejj
	.set	_ZN12VertexBufferC1Ejj,_ZN12VertexBufferC2Ejj
	.align 2
	.p2align 4
	.globl	_ZN12VertexBuffer11change_dataEjjPf
	.type	_ZN12VertexBuffer11change_dataEjjPf, @function
_ZN12VertexBuffer11change_dataEjjPf:
.LFB2945:
	.cfi_startproc
	pushq	%r14
	.cfi_def_cfa_offset 16
	.cfi_offset 14, -16
	movq	%rcx, %r14
	pushq	%r13
	.cfi_def_cfa_offset 24
	.cfi_offset 13, -24
	movl	%edx, %r13d
	pushq	%r12
	.cfi_def_cfa_offset 32
	.cfi_offset 12, -32
	movl	%esi, %r12d
	pushq	%rbp
	.cfi_def_cfa_offset 40
	.cfi_offset 6, -40
	pushq	%rbx
	.cfi_def_cfa_offset 48
	.cfi_offset 3, -48
	movq	%rdi, %rbx
	.p2align 4,,10
	.p2align 3
.L201:
	call	glGetError@PLT
	testl	%eax, %eax
	jne	.L201
	movl	(%rbx), %esi
	movl	$34962, %edi
	leaq	.LC3(%rip), %rbp
	leaq	.LC13(%rip), %rbx
	call	*__glewBindBuffer(%rip)
	jmp	.L203
	.p2align 4,,10
	.p2align 3
.L216:
	leaq	.LC12(%rip), %r8
	movq	%rbp, %rcx
	movq	%rbx, %rsi
	xorl	%eax, %eax
	movl	$12, %edx
	movl	$2, %edi
	call	_ZN6logger3logEiPKciS1_S1_z.constprop.0
.L203:
	call	glGetError@PLT
	movl	%eax, %r9d
	testl	%eax, %eax
	jne	.L216
	.p2align 4,,10
	.p2align 3
.L202:
	call	glGetError@PLT
	testl	%eax, %eax
	jne	.L202
	movl	%r13d, %edx
	movl	%r12d, %esi
	movq	%r14, %rcx
	movl	$34962, %edi
	leaq	.LC3(%rip), %rbp
	leaq	.LC13(%rip), %rbx
	call	*__glewBufferSubData(%rip)
	jmp	.L205
	.p2align 4,,10
	.p2align 3
.L217:
	leaq	.LC12(%rip), %r8
	movq	%rbp, %rcx
	movq	%rbx, %rsi
	xorl	%eax, %eax
	movl	$12, %edx
	movl	$2, %edi
	call	_ZN6logger3logEiPKciS1_S1_z.constprop.0
.L205:
	call	glGetError@PLT
	movl	%eax, %r9d
	testl	%eax, %eax
	jne	.L217
	.p2align 4,,10
	.p2align 3
.L204:
	call	glGetError@PLT
	testl	%eax, %eax
	jne	.L204
	xorl	%esi, %esi
	movl	$34962, %edi
	leaq	.LC3(%rip), %rbp
	call	*__glewBindBuffer(%rip)
	leaq	.LC13(%rip), %rbx
	jmp	.L207
	.p2align 4,,10
	.p2align 3
.L218:
	leaq	.LC12(%rip), %r8
	movq	%rbp, %rcx
	movq	%rbx, %rsi
	xorl	%eax, %eax
	movl	$12, %edx
	movl	$2, %edi
	call	_ZN6logger3logEiPKciS1_S1_z.constprop.0
.L207:
	call	glGetError@PLT
	movl	%eax, %r9d
	testl	%eax, %eax
	jne	.L218
	popq	%rbx
	.cfi_def_cfa_offset 40
	popq	%rbp
	.cfi_def_cfa_offset 32
	popq	%r12
	.cfi_def_cfa_offset 24
	popq	%r13
	.cfi_def_cfa_offset 16
	popq	%r14
	.cfi_def_cfa_offset 8
	ret
	.cfi_endproc
.LFE2945:
	.size	_ZN12VertexBuffer11change_dataEjjPf, .-_ZN12VertexBuffer11change_dataEjjPf
	.align 2
	.p2align 4
	.globl	_ZN12VertexBufferC2EPfjj
	.type	_ZN12VertexBufferC2EPfjj, @function
_ZN12VertexBufferC2EPfjj:
.LFB2943:
	.cfi_startproc
	pushq	%r13
	.cfi_def_cfa_offset 16
	.cfi_offset 13, -16
	movl	%edx, %eax
	movq	%rsi, %r13
	pushq	%r12
	.cfi_def_cfa_offset 24
	.cfi_offset 12, -24
	movq	%rax, %r12
	pushq	%rbp
	.cfi_def_cfa_offset 32
	.cfi_offset 6, -32
	movq	%rdi, %rbp
	pushq	%rbx
	.cfi_def_cfa_offset 40
	.cfi_offset 3, -40
	subq	$8, %rsp
	.cfi_def_cfa_offset 48
	movl	%ecx, 16(%rdi)
	movq	%rax, 8(%rdi)
	call	_ZN12VertexBuffer4initEv
	movq	%r13, %rcx
	movl	%r12d, %edx
	xorl	%esi, %esi
	movq	%rbp, %rdi
	call	_ZN12VertexBuffer11change_dataEjjPf
	.p2align 4,,10
	.p2align 3
.L220:
	call	glGetError@PLT
	testl	%eax, %eax
	jne	.L220
	xorl	%esi, %esi
	movl	$34962, %edi
	leaq	.LC3(%rip), %rbp
	call	*__glewBindBuffer(%rip)
	leaq	.LC13(%rip), %rbx
	jmp	.L222
	.p2align 4,,10
	.p2align 3
.L225:
	leaq	.LC12(%rip), %r8
	movq	%rbp, %rcx
	movq	%rbx, %rsi
	xorl	%eax, %eax
	movl	$12, %edx
	movl	$2, %edi
	call	_ZN6logger3logEiPKciS1_S1_z.constprop.0
.L222:
	call	glGetError@PLT
	movl	%eax, %r9d
	testl	%eax, %eax
	jne	.L225
	addq	$8, %rsp
	.cfi_def_cfa_offset 40
	popq	%rbx
	.cfi_def_cfa_offset 32
	popq	%rbp
	.cfi_def_cfa_offset 24
	popq	%r12
	.cfi_def_cfa_offset 16
	popq	%r13
	.cfi_def_cfa_offset 8
	ret
	.cfi_endproc
.LFE2943:
	.size	_ZN12VertexBufferC2EPfjj, .-_ZN12VertexBufferC2EPfjj
	.globl	_ZN12VertexBufferC1EPfjj
	.set	_ZN12VertexBufferC1EPfjj,_ZN12VertexBufferC2EPfjj
	.align 2
	.p2align 4
	.globl	_ZN12VertexBuffer4BindEv
	.type	_ZN12VertexBuffer4BindEv, @function
_ZN12VertexBuffer4BindEv:
.LFB2946:
	.cfi_startproc
	pushq	%rbp
	.cfi_def_cfa_offset 16
	.cfi_offset 6, -16
	pushq	%rbx
	.cfi_def_cfa_offset 24
	.cfi_offset 3, -24
	movq	%rdi, %rbx
	subq	$8, %rsp
	.cfi_def_cfa_offset 32
	.p2align 4,,10
	.p2align 3
.L227:
	call	glGetError@PLT
	testl	%eax, %eax
	jne	.L227
	movl	(%rbx), %esi
	movl	$34962, %edi
	leaq	.LC3(%rip), %rbp
	leaq	.LC13(%rip), %rbx
	call	*__glewBindBuffer(%rip)
	jmp	.L229
	.p2align 4,,10
	.p2align 3
.L232:
	leaq	.LC12(%rip), %r8
	movq	%rbp, %rcx
	movq	%rbx, %rsi
	xorl	%eax, %eax
	movl	$12, %edx
	movl	$2, %edi
	call	_ZN6logger3logEiPKciS1_S1_z.constprop.0
.L229:
	call	glGetError@PLT
	movl	%eax, %r9d
	testl	%eax, %eax
	jne	.L232
	addq	$8, %rsp
	.cfi_def_cfa_offset 24
	popq	%rbx
	.cfi_def_cfa_offset 16
	popq	%rbp
	.cfi_def_cfa_offset 8
	ret
	.cfi_endproc
.LFE2946:
	.size	_ZN12VertexBuffer4BindEv, .-_ZN12VertexBuffer4BindEv
	.align 2
	.p2align 4
	.globl	_ZN12VertexBuffer6UnbindEv
	.type	_ZN12VertexBuffer6UnbindEv, @function
_ZN12VertexBuffer6UnbindEv:
.LFB2947:
	.cfi_startproc
	pushq	%rbp
	.cfi_def_cfa_offset 16
	.cfi_offset 6, -16
	pushq	%rbx
	.cfi_def_cfa_offset 24
	.cfi_offset 3, -24
	subq	$8, %rsp
	.cfi_def_cfa_offset 32
	.p2align 4,,10
	.p2align 3
.L234:
	call	glGetError@PLT
	testl	%eax, %eax
	jne	.L234
	xorl	%esi, %esi
	movl	$34962, %edi
	leaq	.LC3(%rip), %rbp
	call	*__glewBindBuffer(%rip)
	leaq	.LC13(%rip), %rbx
	jmp	.L236
	.p2align 4,,10
	.p2align 3
.L239:
	leaq	.LC12(%rip), %r8
	movq	%rbp, %rcx
	movq	%rbx, %rsi
	xorl	%eax, %eax
	movl	$12, %edx
	movl	$2, %edi
	call	_ZN6logger3logEiPKciS1_S1_z.constprop.0
.L236:
	call	glGetError@PLT
	movl	%eax, %r9d
	testl	%eax, %eax
	jne	.L239
	addq	$8, %rsp
	.cfi_def_cfa_offset 24
	popq	%rbx
	.cfi_def_cfa_offset 16
	popq	%rbp
	.cfi_def_cfa_offset 8
	ret
	.cfi_endproc
.LFE2947:
	.size	_ZN12VertexBuffer6UnbindEv, .-_ZN12VertexBuffer6UnbindEv
	.align 2
	.p2align 4
	.globl	_ZN12VertexBuffer6DeleteEv
	.type	_ZN12VertexBuffer6DeleteEv, @function
_ZN12VertexBuffer6DeleteEv:
.LFB2948:
	.cfi_startproc
	movq	%rdi, %rsi
	movl	$1, %edi
	jmp	*__glewDeleteBuffers(%rip)
	.cfi_endproc
.LFE2948:
	.size	_ZN12VertexBuffer6DeleteEv, .-_ZN12VertexBuffer6DeleteEv
	.align 2
	.p2align 4
	.globl	_ZN11IndexBufferC2EPjj
	.type	_ZN11IndexBufferC2EPjj, @function
_ZN11IndexBufferC2EPjj:
.LFB2950:
	.cfi_startproc
	pushq	%r14
	.cfi_def_cfa_offset 16
	.cfi_offset 14, -16
	movq	%rdi, %r14
	pushq	%r13
	.cfi_def_cfa_offset 24
	.cfi_offset 13, -24
	pushq	%r12
	.cfi_def_cfa_offset 32
	.cfi_offset 12, -32
	movq	%rsi, %r12
	pushq	%rbp
	.cfi_def_cfa_offset 40
	.cfi_offset 6, -40
	movl	%edx, %ebp
	pushq	%rbx
	.cfi_def_cfa_offset 48
	.cfi_offset 3, -48
	.p2align 4,,10
	.p2align 3
.L242:
	call	glGetError@PLT
	testl	%eax, %eax
	jne	.L242
	movq	%r14, %rsi
	movl	$1, %edi
	leaq	.LC3(%rip), %r13
	call	*__glewGenBuffers(%rip)
	leaq	.LC13(%rip), %rbx
	jmp	.L244
	.p2align 4,,10
	.p2align 3
.L262:
	leaq	.LC12(%rip), %r8
	movq	%r13, %rcx
	movq	%rbx, %rsi
	xorl	%eax, %eax
	movl	$12, %edx
	movl	$2, %edi
	call	_ZN6logger3logEiPKciS1_S1_z.constprop.0
.L244:
	call	glGetError@PLT
	movl	%eax, %r9d
	testl	%eax, %eax
	jne	.L262
	.p2align 4,,10
	.p2align 3
.L243:
	call	glGetError@PLT
	testl	%eax, %eax
	jne	.L243
	movl	(%r14), %esi
	movl	$34963, %edi
	leaq	.LC3(%rip), %r13
	leaq	.LC13(%rip), %rbx
	call	*__glewBindBuffer(%rip)
	jmp	.L246
	.p2align 4,,10
	.p2align 3
.L263:
	leaq	.LC12(%rip), %r8
	movq	%r13, %rcx
	movq	%rbx, %rsi
	xorl	%eax, %eax
	movl	$12, %edx
	movl	$2, %edi
	call	_ZN6logger3logEiPKciS1_S1_z.constprop.0
.L246:
	call	glGetError@PLT
	movl	%eax, %r9d
	testl	%eax, %eax
	jne	.L263
	.p2align 4,,10
	.p2align 3
.L245:
	call	glGetError@PLT
	testl	%eax, %eax
	jne	.L245
	movl	%ebp, %esi
	movl	$35044, %ecx
	movq	%r12, %rdx
	movl	$34963, %edi
	leaq	.LC3(%rip), %rbp
	leaq	.LC13(%rip), %rbx
	call	*__glewBufferData(%rip)
	jmp	.L248
	.p2align 4,,10
	.p2align 3
.L264:
	leaq	.LC12(%rip), %r8
	movq	%rbp, %rcx
	movq	%rbx, %rsi
	xorl	%eax, %eax
	movl	$12, %edx
	movl	$2, %edi
	call	_ZN6logger3logEiPKciS1_S1_z.constprop.0
.L248:
	call	glGetError@PLT
	movl	%eax, %r9d
	testl	%eax, %eax
	jne	.L264
	.p2align 4,,10
	.p2align 3
.L247:
	call	glGetError@PLT
	testl	%eax, %eax
	jne	.L247
	xorl	%esi, %esi
	movl	$34963, %edi
	leaq	.LC3(%rip), %rbp
	call	*__glewBindBuffer(%rip)
	leaq	.LC13(%rip), %rbx
	jmp	.L250
	.p2align 4,,10
	.p2align 3
.L265:
	leaq	.LC12(%rip), %r8
	movq	%rbp, %rcx
	movq	%rbx, %rsi
	xorl	%eax, %eax
	movl	$12, %edx
	movl	$2, %edi
	call	_ZN6logger3logEiPKciS1_S1_z.constprop.0
.L250:
	call	glGetError@PLT
	movl	%eax, %r9d
	testl	%eax, %eax
	jne	.L265
	popq	%rbx
	.cfi_def_cfa_offset 40
	popq	%rbp
	.cfi_def_cfa_offset 32
	popq	%r12
	.cfi_def_cfa_offset 24
	popq	%r13
	.cfi_def_cfa_offset 16
	popq	%r14
	.cfi_def_cfa_offset 8
	ret
	.cfi_endproc
.LFE2950:
	.size	_ZN11IndexBufferC2EPjj, .-_ZN11IndexBufferC2EPjj
	.globl	_ZN11IndexBufferC1EPjj
	.set	_ZN11IndexBufferC1EPjj,_ZN11IndexBufferC2EPjj
	.align 2
	.p2align 4
	.globl	_ZN11IndexBuffer11change_dataEjjPj
	.type	_ZN11IndexBuffer11change_dataEjjPj, @function
_ZN11IndexBuffer11change_dataEjjPj:
.LFB2952:
	.cfi_startproc
	pushq	%r14
	.cfi_def_cfa_offset 16
	.cfi_offset 14, -16
	movq	%rcx, %r14
	pushq	%r13
	.cfi_def_cfa_offset 24
	.cfi_offset 13, -24
	movl	%edx, %r13d
	pushq	%r12
	.cfi_def_cfa_offset 32
	.cfi_offset 12, -32
	movl	%esi, %r12d
	pushq	%rbp
	.cfi_def_cfa_offset 40
	.cfi_offset 6, -40
	pushq	%rbx
	.cfi_def_cfa_offset 48
	.cfi_offset 3, -48
	movq	%rdi, %rbx
	.p2align 4,,10
	.p2align 3
.L267:
	call	glGetError@PLT
	testl	%eax, %eax
	jne	.L267
	movl	(%rbx), %esi
	movl	$34963, %edi
	leaq	.LC3(%rip), %rbp
	leaq	.LC13(%rip), %rbx
	call	*__glewBindBuffer(%rip)
	jmp	.L269
	.p2align 4,,10
	.p2align 3
.L282:
	leaq	.LC12(%rip), %r8
	movq	%rbp, %rcx
	movq	%rbx, %rsi
	xorl	%eax, %eax
	movl	$12, %edx
	movl	$2, %edi
	call	_ZN6logger3logEiPKciS1_S1_z.constprop.0
.L269:
	call	glGetError@PLT
	movl	%eax, %r9d
	testl	%eax, %eax
	jne	.L282
	.p2align 4,,10
	.p2align 3
.L268:
	call	glGetError@PLT
	testl	%eax, %eax
	jne	.L268
	movl	%r13d, %edx
	movl	%r12d, %esi
	movq	%r14, %rcx
	movl	$34963, %edi
	leaq	.LC3(%rip), %rbp
	leaq	.LC13(%rip), %rbx
	call	*__glewBufferSubData(%rip)
	jmp	.L271
	.p2align 4,,10
	.p2align 3
.L283:
	leaq	.LC12(%rip), %r8
	movq	%rbp, %rcx
	movq	%rbx, %rsi
	xorl	%eax, %eax
	movl	$12, %edx
	movl	$2, %edi
	call	_ZN6logger3logEiPKciS1_S1_z.constprop.0
.L271:
	call	glGetError@PLT
	movl	%eax, %r9d
	testl	%eax, %eax
	jne	.L283
	.p2align 4,,10
	.p2align 3
.L270:
	call	glGetError@PLT
	testl	%eax, %eax
	jne	.L270
	xorl	%esi, %esi
	movl	$34963, %edi
	leaq	.LC3(%rip), %rbp
	call	*__glewBindBuffer(%rip)
	leaq	.LC13(%rip), %rbx
	jmp	.L273
	.p2align 4,,10
	.p2align 3
.L284:
	leaq	.LC12(%rip), %r8
	movq	%rbp, %rcx
	movq	%rbx, %rsi
	xorl	%eax, %eax
	movl	$12, %edx
	movl	$2, %edi
	call	_ZN6logger3logEiPKciS1_S1_z.constprop.0
.L273:
	call	glGetError@PLT
	movl	%eax, %r9d
	testl	%eax, %eax
	jne	.L284
	popq	%rbx
	.cfi_def_cfa_offset 40
	popq	%rbp
	.cfi_def_cfa_offset 32
	popq	%r12
	.cfi_def_cfa_offset 24
	popq	%r13
	.cfi_def_cfa_offset 16
	popq	%r14
	.cfi_def_cfa_offset 8
	ret
	.cfi_endproc
.LFE2952:
	.size	_ZN11IndexBuffer11change_dataEjjPj, .-_ZN11IndexBuffer11change_dataEjjPj
	.align 2
	.p2align 4
	.globl	_ZN11IndexBuffer4BindEv
	.type	_ZN11IndexBuffer4BindEv, @function
_ZN11IndexBuffer4BindEv:
.LFB2953:
	.cfi_startproc
	pushq	%rbp
	.cfi_def_cfa_offset 16
	.cfi_offset 6, -16
	pushq	%rbx
	.cfi_def_cfa_offset 24
	.cfi_offset 3, -24
	movq	%rdi, %rbx
	subq	$8, %rsp
	.cfi_def_cfa_offset 32
	.p2align 4,,10
	.p2align 3
.L286:
	call	glGetError@PLT
	testl	%eax, %eax
	jne	.L286
	movl	(%rbx), %esi
	movl	$34963, %edi
	leaq	.LC3(%rip), %rbp
	leaq	.LC13(%rip), %rbx
	call	*__glewBindBuffer(%rip)
	jmp	.L288
	.p2align 4,,10
	.p2align 3
.L291:
	leaq	.LC12(%rip), %r8
	movq	%rbp, %rcx
	movq	%rbx, %rsi
	xorl	%eax, %eax
	movl	$12, %edx
	movl	$2, %edi
	call	_ZN6logger3logEiPKciS1_S1_z.constprop.0
.L288:
	call	glGetError@PLT
	movl	%eax, %r9d
	testl	%eax, %eax
	jne	.L291
	addq	$8, %rsp
	.cfi_def_cfa_offset 24
	popq	%rbx
	.cfi_def_cfa_offset 16
	popq	%rbp
	.cfi_def_cfa_offset 8
	ret
	.cfi_endproc
.LFE2953:
	.size	_ZN11IndexBuffer4BindEv, .-_ZN11IndexBuffer4BindEv
	.align 2
	.p2align 4
	.globl	_ZN11IndexBuffer6UnbindEv
	.type	_ZN11IndexBuffer6UnbindEv, @function
_ZN11IndexBuffer6UnbindEv:
.LFB2954:
	.cfi_startproc
	pushq	%rbp
	.cfi_def_cfa_offset 16
	.cfi_offset 6, -16
	pushq	%rbx
	.cfi_def_cfa_offset 24
	.cfi_offset 3, -24
	subq	$8, %rsp
	.cfi_def_cfa_offset 32
	.p2align 4,,10
	.p2align 3
.L293:
	call	glGetError@PLT
	testl	%eax, %eax
	jne	.L293
	xorl	%esi, %esi
	movl	$34963, %edi
	leaq	.LC3(%rip), %rbp
	call	*__glewBindBuffer(%rip)
	leaq	.LC13(%rip), %rbx
	jmp	.L295
	.p2align 4,,10
	.p2align 3
.L298:
	leaq	.LC12(%rip), %r8
	movq	%rbp, %rcx
	movq	%rbx, %rsi
	xorl	%eax, %eax
	movl	$12, %edx
	movl	$2, %edi
	call	_ZN6logger3logEiPKciS1_S1_z.constprop.0
.L295:
	call	glGetError@PLT
	movl	%eax, %r9d
	testl	%eax, %eax
	jne	.L298
	addq	$8, %rsp
	.cfi_def_cfa_offset 24
	popq	%rbx
	.cfi_def_cfa_offset 16
	popq	%rbp
	.cfi_def_cfa_offset 8
	ret
	.cfi_endproc
.LFE2954:
	.size	_ZN11IndexBuffer6UnbindEv, .-_ZN11IndexBuffer6UnbindEv
	.align 2
	.p2align 4
	.globl	_ZN11IndexBuffer6DeleteEv
	.type	_ZN11IndexBuffer6DeleteEv, @function
_ZN11IndexBuffer6DeleteEv:
.LFB2955:
	.cfi_startproc
	pushq	%rbp
	.cfi_def_cfa_offset 16
	.cfi_offset 6, -16
	movq	%rdi, %rbp
	pushq	%rbx
	.cfi_def_cfa_offset 24
	.cfi_offset 3, -24
	subq	$8, %rsp
	.cfi_def_cfa_offset 32
	.p2align 4,,10
	.p2align 3
.L300:
	call	glGetError@PLT
	testl	%eax, %eax
	jne	.L300
	movq	%rbp, %rsi
	movl	$1, %edi
	leaq	.LC3(%rip), %rbp
	call	*__glewDeleteBuffers(%rip)
	leaq	.LC13(%rip), %rbx
	jmp	.L302
	.p2align 4,,10
	.p2align 3
.L305:
	leaq	.LC12(%rip), %r8
	movq	%rbp, %rcx
	movq	%rbx, %rsi
	xorl	%eax, %eax
	movl	$12, %edx
	movl	$2, %edi
	call	_ZN6logger3logEiPKciS1_S1_z.constprop.0
.L302:
	call	glGetError@PLT
	movl	%eax, %r9d
	testl	%eax, %eax
	jne	.L305
	addq	$8, %rsp
	.cfi_def_cfa_offset 24
	popq	%rbx
	.cfi_def_cfa_offset 16
	popq	%rbp
	.cfi_def_cfa_offset 8
	ret
	.cfi_endproc
.LFE2955:
	.size	_ZN11IndexBuffer6DeleteEv, .-_ZN11IndexBuffer6DeleteEv
	.section	.text.unlikely
	.align 2
.LCOLDB21:
	.text
.LHOTB21:
	.align 2
	.p2align 4
	.globl	_ZN11ArrayBufferC2Ev
	.type	_ZN11ArrayBufferC2Ev, @function
_ZN11ArrayBufferC2Ev:
.LFB3322:
	.cfi_startproc
	.cfi_personality 0x9b,DW.ref.__gxx_personality_v0
	.cfi_lsda 0x1b,.LLSDA3322
	pushq	%r12
	.cfi_def_cfa_offset 16
	.cfi_offset 12, -16
	pxor	%xmm0, %xmm0
	movq	%rdi, %r12
	pushq	%rbp
	.cfi_def_cfa_offset 24
	.cfi_offset 6, -24
	pushq	%rbx
	.cfi_def_cfa_offset 32
	.cfi_offset 3, -32
	movq	$0, 40(%rdi)
	movups	%xmm0, 8(%rdi)
	movups	%xmm0, 24(%rdi)
	.p2align 4,,10
	.p2align 3
.L307:
.LEHB2:
	call	glGetError@PLT
	testl	%eax, %eax
	jne	.L307
	movq	%r12, %rsi
	movl	$1, %edi
	call	*__glewGenVertexArrays(%rip)
	leaq	.LC3(%rip), %rbx
	leaq	.LC13(%rip), %rbp
	jmp	.L309
	.p2align 4,,10
	.p2align 3
.L318:
	leaq	.LC12(%rip), %r8
	movq	%rbx, %rcx
	movq	%rbp, %rsi
	xorl	%eax, %eax
	movl	$12, %edx
	movl	$2, %edi
	call	_ZN6logger3logEiPKciS1_S1_z.constprop.0
.L309:
	call	glGetError@PLT
.LEHE2:
	movl	%eax, %r9d
	testl	%eax, %eax
	jne	.L318
	popq	%rbx
	.cfi_remember_state
	.cfi_def_cfa_offset 24
	popq	%rbp
	.cfi_def_cfa_offset 16
	popq	%r12
	.cfi_def_cfa_offset 8
	ret
.L312:
	.cfi_restore_state
	movq	%rax, %rbp
	jmp	.L310
	.section	.gcc_except_table
.LLSDA3322:
	.byte	0xff
	.byte	0xff
	.byte	0x1
	.uleb128 .LLSDACSE3322-.LLSDACSB3322
.LLSDACSB3322:
	.uleb128 .LEHB2-.LFB3322
	.uleb128 .LEHE2-.LEHB2
	.uleb128 .L312-.LFB3322
	.uleb128 0
.LLSDACSE3322:
	.text
	.cfi_endproc
	.section	.text.unlikely
	.cfi_startproc
	.cfi_personality 0x9b,DW.ref.__gxx_personality_v0
	.cfi_lsda 0x1b,.LLSDAC3322
	.type	_ZN11ArrayBufferC2Ev.cold, @function
_ZN11ArrayBufferC2Ev.cold:
.LFSB3322:
.L310:
	.cfi_def_cfa_offset 32
	.cfi_offset 3, -32
	.cfi_offset 6, -24
	.cfi_offset 12, -16
	movq	24(%r12), %rdi
	movq	40(%r12), %rsi
	subq	%rdi, %rsi
	testq	%rdi, %rdi
	je	.L311
	call	_ZdlPvm@PLT
.L311:
	movq	%rbp, %rdi
.LEHB3:
	call	_Unwind_Resume@PLT
.LEHE3:
	.cfi_endproc
.LFE3322:
	.section	.gcc_except_table
.LLSDAC3322:
	.byte	0xff
	.byte	0xff
	.byte	0x1
	.uleb128 .LLSDACSEC3322-.LLSDACSBC3322
.LLSDACSBC3322:
	.uleb128 .LEHB3-.LCOLDB21
	.uleb128 .LEHE3-.LEHB3
	.uleb128 0
	.uleb128 0
.LLSDACSEC3322:
	.section	.text.unlikely
	.text
	.size	_ZN11ArrayBufferC2Ev, .-_ZN11ArrayBufferC2Ev
	.section	.text.unlikely
	.size	_ZN11ArrayBufferC2Ev.cold, .-_ZN11ArrayBufferC2Ev.cold
.LCOLDE21:
	.text
.LHOTE21:
	.globl	_ZN11ArrayBufferC1Ev
	.set	_ZN11ArrayBufferC1Ev,_ZN11ArrayBufferC2Ev
	.align 2
	.p2align 4
	.globl	_ZN11ArrayBuffer15setVertexBufferEP12VertexBuffer
	.type	_ZN11ArrayBuffer15setVertexBufferEP12VertexBuffer, @function
_ZN11ArrayBuffer15setVertexBufferEP12VertexBuffer:
.LFB3324:
	.cfi_startproc
	movq	%rsi, 8(%rdi)
	ret
	.cfi_endproc
.LFE3324:
	.size	_ZN11ArrayBuffer15setVertexBufferEP12VertexBuffer, .-_ZN11ArrayBuffer15setVertexBufferEP12VertexBuffer
	.align 2
	.p2align 4
	.globl	_ZN11ArrayBuffer14setIndexBufferEP11IndexBuffer
	.type	_ZN11ArrayBuffer14setIndexBufferEP11IndexBuffer, @function
_ZN11ArrayBuffer14setIndexBufferEP11IndexBuffer:
.LFB3325:
	.cfi_startproc
	movq	%rsi, 16(%rdi)
	ret
	.cfi_endproc
.LFE3325:
	.size	_ZN11ArrayBuffer14setIndexBufferEP11IndexBuffer, .-_ZN11ArrayBuffer14setIndexBufferEP11IndexBuffer
	.align 2
	.p2align 4
	.globl	_ZN11ArrayBuffer4BindEv
	.type	_ZN11ArrayBuffer4BindEv, @function
_ZN11ArrayBuffer4BindEv:
.LFB3327:
	.cfi_startproc
	pushq	%r13
	.cfi_def_cfa_offset 16
	.cfi_offset 13, -16
	movq	%rdi, %r13
	pushq	%r12
	.cfi_def_cfa_offset 24
	.cfi_offset 12, -24
	pushq	%rbp
	.cfi_def_cfa_offset 32
	.cfi_offset 6, -32
	pushq	%rbx
	.cfi_def_cfa_offset 40
	.cfi_offset 3, -40
	subq	$8, %rsp
	.cfi_def_cfa_offset 48
	.p2align 4,,10
	.p2align 3
.L322:
	call	glGetError@PLT
	testl	%eax, %eax
	jne	.L322
	movl	0(%r13), %edi
	leaq	.LC3(%rip), %r12
	leaq	.LC13(%rip), %rbp
	call	*__glewBindVertexArray(%rip)
	jmp	.L324
	.p2align 4,,10
	.p2align 3
.L355:
	movl	%eax, %r9d
	leaq	.LC12(%rip), %r8
	movq	%r12, %rcx
	movq	%rbp, %rsi
	movl	$12, %edx
	movl	$2, %edi
	xorl	%eax, %eax
	call	_ZN6logger3logEiPKciS1_S1_z.constprop.0
.L324:
	call	glGetError@PLT
	movl	%eax, %ebx
	testl	%eax, %eax
	jne	.L355
	movq	8(%r13), %rbp
	testq	%rbp, %rbp
	je	.L325
	.p2align 4,,10
	.p2align 3
.L326:
	call	glGetError@PLT
	testl	%eax, %eax
	jne	.L326
	movl	0(%rbp), %esi
	movl	$34962, %edi
	leaq	.LC3(%rip), %r12
	leaq	.LC13(%rip), %rbp
	call	*__glewBindBuffer(%rip)
	jmp	.L327
	.p2align 4,,10
	.p2align 3
.L356:
	leaq	.LC12(%rip), %r8
	movq	%r12, %rcx
	movq	%rbp, %rsi
	xorl	%eax, %eax
	movl	$12, %edx
	movl	$2, %edi
	call	_ZN6logger3logEiPKciS1_S1_z.constprop.0
.L327:
	call	glGetError@PLT
	movl	%eax, %r9d
	testl	%eax, %eax
	jne	.L356
.L325:
	movq	16(%r13), %rbp
	testq	%rbp, %rbp
	je	.L328
	.p2align 4,,10
	.p2align 3
.L329:
	call	glGetError@PLT
	testl	%eax, %eax
	jne	.L329
	movl	0(%rbp), %esi
	movl	$34963, %edi
	leaq	.LC3(%rip), %r12
	leaq	.LC13(%rip), %rbp
	call	*__glewBindBuffer(%rip)
	jmp	.L330
	.p2align 4,,10
	.p2align 3
.L357:
	leaq	.LC12(%rip), %r8
	movq	%r12, %rcx
	movq	%rbp, %rsi
	xorl	%eax, %eax
	movl	$12, %edx
	movl	$2, %edi
	call	_ZN6logger3logEiPKciS1_S1_z.constprop.0
.L330:
	call	glGetError@PLT
	movl	%eax, %r9d
	testl	%eax, %eax
	jne	.L357
.L328:
	movq	24(%r13), %rax
	leaq	.LC3(%rip), %r12
	leaq	.LC13(%rip), %rbp
	cmpq	%rax, 32(%r13)
	je	.L321
	.p2align 4,,10
	.p2align 3
.L332:
	call	glGetError@PLT
	testl	%eax, %eax
	jne	.L332
	movl	%ebx, %edi
	call	*__glewEnableVertexAttribArray(%rip)
	jmp	.L334
	.p2align 4,,10
	.p2align 3
.L358:
	leaq	.LC12(%rip), %r8
	movq	%r12, %rcx
	movq	%rbp, %rsi
	xorl	%eax, %eax
	movl	$12, %edx
	movl	$2, %edi
	call	_ZN6logger3logEiPKciS1_S1_z.constprop.0
.L334:
	call	glGetError@PLT
	movl	%eax, %r9d
	testl	%eax, %eax
	jne	.L358
	movq	32(%r13), %rax
	subq	24(%r13), %rax
	leal	1(%rbx), %edx
	sarq	$2, %rax
	movq	%rdx, %rbx
	cmpq	%rax, %rdx
	jb	.L332
.L321:
	addq	$8, %rsp
	.cfi_def_cfa_offset 40
	popq	%rbx
	.cfi_def_cfa_offset 32
	popq	%rbp
	.cfi_def_cfa_offset 24
	popq	%r12
	.cfi_def_cfa_offset 16
	popq	%r13
	.cfi_def_cfa_offset 8
	ret
	.cfi_endproc
.LFE3327:
	.size	_ZN11ArrayBuffer4BindEv, .-_ZN11ArrayBuffer4BindEv
	.align 2
	.p2align 4
	.globl	_ZN11ArrayBuffer6UnbindEv
	.type	_ZN11ArrayBuffer6UnbindEv, @function
_ZN11ArrayBuffer6UnbindEv:
.LFB3328:
	.cfi_startproc
	pushq	%r12
	.cfi_def_cfa_offset 16
	.cfi_offset 12, -16
	pushq	%rbp
	.cfi_def_cfa_offset 24
	.cfi_offset 6, -24
	pushq	%rbx
	.cfi_def_cfa_offset 32
	.cfi_offset 3, -32
	movq	%rdi, %rbx
	.p2align 4,,10
	.p2align 3
.L360:
	call	glGetError@PLT
	testl	%eax, %eax
	jne	.L360
	xorl	%edi, %edi
	leaq	.LC3(%rip), %r12
	leaq	.LC13(%rip), %rbp
	call	*__glewBindVertexArray(%rip)
	jmp	.L362
	.p2align 4,,10
	.p2align 3
.L379:
	leaq	.LC12(%rip), %r8
	movq	%r12, %rcx
	movq	%rbp, %rsi
	xorl	%eax, %eax
	movl	$12, %edx
	movl	$2, %edi
	call	_ZN6logger3logEiPKciS1_S1_z.constprop.0
.L362:
	call	glGetError@PLT
	movl	%eax, %r9d
	testl	%eax, %eax
	jne	.L379
	cmpq	$0, 8(%rbx)
	je	.L363
	.p2align 4,,10
	.p2align 3
.L364:
	call	glGetError@PLT
	testl	%eax, %eax
	jne	.L364
	xorl	%esi, %esi
	movl	$34962, %edi
	leaq	.LC3(%rip), %r12
	call	*__glewBindBuffer(%rip)
	leaq	.LC13(%rip), %rbp
	jmp	.L365
	.p2align 4,,10
	.p2align 3
.L380:
	leaq	.LC12(%rip), %r8
	movq	%r12, %rcx
	movq	%rbp, %rsi
	xorl	%eax, %eax
	movl	$12, %edx
	movl	$2, %edi
	call	_ZN6logger3logEiPKciS1_S1_z.constprop.0
.L365:
	call	glGetError@PLT
	movl	%eax, %r9d
	testl	%eax, %eax
	jne	.L380
.L363:
	cmpq	$0, 16(%rbx)
	je	.L359
	.p2align 4,,10
	.p2align 3
.L367:
	call	glGetError@PLT
	testl	%eax, %eax
	jne	.L367
	xorl	%esi, %esi
	movl	$34963, %edi
	leaq	.LC3(%rip), %rbp
	call	*__glewBindBuffer(%rip)
	leaq	.LC13(%rip), %rbx
	jmp	.L368
	.p2align 4,,10
	.p2align 3
.L381:
	leaq	.LC12(%rip), %r8
	movq	%rbp, %rcx
	movq	%rbx, %rsi
	xorl	%eax, %eax
	movl	$12, %edx
	movl	$2, %edi
	call	_ZN6logger3logEiPKciS1_S1_z.constprop.0
.L368:
	call	glGetError@PLT
	movl	%eax, %r9d
	testl	%eax, %eax
	jne	.L381
.L359:
	popq	%rbx
	.cfi_def_cfa_offset 24
	popq	%rbp
	.cfi_def_cfa_offset 16
	popq	%r12
	.cfi_def_cfa_offset 8
	ret
	.cfi_endproc
.LFE3328:
	.size	_ZN11ArrayBuffer6UnbindEv, .-_ZN11ArrayBuffer6UnbindEv
	.align 2
	.p2align 4
	.globl	_ZN11ArrayBuffer6DeleteEv
	.type	_ZN11ArrayBuffer6DeleteEv, @function
_ZN11ArrayBuffer6DeleteEv:
.LFB3329:
	.cfi_startproc
	pushq	%rbp
	.cfi_def_cfa_offset 16
	.cfi_offset 6, -16
	movq	%rdi, %rbp
	pushq	%rbx
	.cfi_def_cfa_offset 24
	.cfi_offset 3, -24
	subq	$8, %rsp
	.cfi_def_cfa_offset 32
	.p2align 4,,10
	.p2align 3
.L383:
	call	glGetError@PLT
	testl	%eax, %eax
	jne	.L383
	movq	%rbp, %rsi
	movl	$1, %edi
	leaq	.LC3(%rip), %rbp
	call	*__glewDeleteVertexArrays(%rip)
	leaq	.LC13(%rip), %rbx
	jmp	.L385
	.p2align 4,,10
	.p2align 3
.L388:
	leaq	.LC12(%rip), %r8
	movq	%rbp, %rcx
	movq	%rbx, %rsi
	xorl	%eax, %eax
	movl	$12, %edx
	movl	$2, %edi
	call	_ZN6logger3logEiPKciS1_S1_z.constprop.0
.L385:
	call	glGetError@PLT
	movl	%eax, %r9d
	testl	%eax, %eax
	jne	.L388
	addq	$8, %rsp
	.cfi_def_cfa_offset 24
	popq	%rbx
	.cfi_def_cfa_offset 16
	popq	%rbp
	.cfi_def_cfa_offset 8
	ret
	.cfi_endproc
.LFE3329:
	.size	_ZN11ArrayBuffer6DeleteEv, .-_ZN11ArrayBuffer6DeleteEv
	.align 2
	.p2align 4
	.globl	_ZN11ArrayBuffer9DeleteAllEv
	.type	_ZN11ArrayBuffer9DeleteAllEv, @function
_ZN11ArrayBuffer9DeleteAllEv:
.LFB3330:
	.cfi_startproc
	pushq	%r12
	.cfi_def_cfa_offset 16
	.cfi_offset 12, -16
	movq	%rdi, %r12
	pushq	%rbp
	.cfi_def_cfa_offset 24
	.cfi_offset 6, -24
	pushq	%rbx
	.cfi_def_cfa_offset 32
	.cfi_offset 3, -32
	.p2align 4,,10
	.p2align 3
.L390:
	call	glGetError@PLT
	testl	%eax, %eax
	jne	.L390
	movq	%r12, %rsi
	movl	$1, %edi
	leaq	.LC3(%rip), %rbp
	call	*__glewDeleteVertexArrays(%rip)
	leaq	.LC13(%rip), %rbx
	jmp	.L392
	.p2align 4,,10
	.p2align 3
.L409:
	leaq	.LC12(%rip), %r8
	movq	%rbp, %rcx
	movq	%rbx, %rsi
	xorl	%eax, %eax
	movl	$12, %edx
	movl	$2, %edi
	call	_ZN6logger3logEiPKciS1_S1_z.constprop.0
.L392:
	call	glGetError@PLT
	movl	%eax, %r9d
	testl	%eax, %eax
	jne	.L409
	movq	8(%r12), %rsi
	testq	%rsi, %rsi
	je	.L393
	movl	$1, %edi
	call	*__glewDeleteBuffers(%rip)
.L393:
	movq	16(%r12), %rbp
	testq	%rbp, %rbp
	je	.L389
	.p2align 4,,10
	.p2align 3
.L395:
	call	glGetError@PLT
	testl	%eax, %eax
	jne	.L395
	movq	%rbp, %rsi
	movl	$1, %edi
	leaq	.LC3(%rip), %rbp
	call	*__glewDeleteBuffers(%rip)
	leaq	.LC13(%rip), %rbx
	jmp	.L396
	.p2align 4,,10
	.p2align 3
.L410:
	leaq	.LC12(%rip), %r8
	movq	%rbp, %rcx
	movq	%rbx, %rsi
	xorl	%eax, %eax
	movl	$12, %edx
	movl	$2, %edi
	call	_ZN6logger3logEiPKciS1_S1_z.constprop.0
.L396:
	call	glGetError@PLT
	movl	%eax, %r9d
	testl	%eax, %eax
	jne	.L410
.L389:
	popq	%rbx
	.cfi_def_cfa_offset 24
	popq	%rbp
	.cfi_def_cfa_offset 16
	popq	%r12
	.cfi_def_cfa_offset 8
	ret
	.cfi_endproc
.LFE3330:
	.size	_ZN11ArrayBuffer9DeleteAllEv, .-_ZN11ArrayBuffer9DeleteAllEv
	.align 2
	.p2align 4
	.globl	_ZN6Shader4BindEv
	.type	_ZN6Shader4BindEv, @function
_ZN6Shader4BindEv:
.LFB4375:
	.cfi_startproc
	pushq	%rbp
	.cfi_def_cfa_offset 16
	.cfi_offset 6, -16
	pushq	%rbx
	.cfi_def_cfa_offset 24
	.cfi_offset 3, -24
	movq	%rdi, %rbx
	subq	$8, %rsp
	.cfi_def_cfa_offset 32
	.p2align 4,,10
	.p2align 3
.L412:
	call	glGetError@PLT
	testl	%eax, %eax
	jne	.L412
	movl	(%rbx), %edi
	leaq	.LC3(%rip), %rbp
	leaq	.LC13(%rip), %rbx
	call	*__glewUseProgram(%rip)
	jmp	.L414
	.p2align 4,,10
	.p2align 3
.L417:
	leaq	.LC12(%rip), %r8
	movq	%rbp, %rcx
	movq	%rbx, %rsi
	xorl	%eax, %eax
	movl	$12, %edx
	movl	$2, %edi
	call	_ZN6logger3logEiPKciS1_S1_z.constprop.0
.L414:
	call	glGetError@PLT
	movl	%eax, %r9d
	testl	%eax, %eax
	jne	.L417
	addq	$8, %rsp
	.cfi_def_cfa_offset 24
	popq	%rbx
	.cfi_def_cfa_offset 16
	popq	%rbp
	.cfi_def_cfa_offset 8
	ret
	.cfi_endproc
.LFE4375:
	.size	_ZN6Shader4BindEv, .-_ZN6Shader4BindEv
	.align 2
	.p2align 4
	.globl	_ZN6Shader6UnbindEv
	.type	_ZN6Shader6UnbindEv, @function
_ZN6Shader6UnbindEv:
.LFB4376:
	.cfi_startproc
	pushq	%rbp
	.cfi_def_cfa_offset 16
	.cfi_offset 6, -16
	pushq	%rbx
	.cfi_def_cfa_offset 24
	.cfi_offset 3, -24
	subq	$8, %rsp
	.cfi_def_cfa_offset 32
	.p2align 4,,10
	.p2align 3
.L419:
	call	glGetError@PLT
	testl	%eax, %eax
	jne	.L419
	xorl	%edi, %edi
	leaq	.LC3(%rip), %rbp
	leaq	.LC13(%rip), %rbx
	call	*__glewUseProgram(%rip)
	jmp	.L421
	.p2align 4,,10
	.p2align 3
.L424:
	leaq	.LC12(%rip), %r8
	movq	%rbp, %rcx
	movq	%rbx, %rsi
	xorl	%eax, %eax
	movl	$12, %edx
	movl	$2, %edi
	call	_ZN6logger3logEiPKciS1_S1_z.constprop.0
.L421:
	call	glGetError@PLT
	movl	%eax, %r9d
	testl	%eax, %eax
	jne	.L424
	addq	$8, %rsp
	.cfi_def_cfa_offset 24
	popq	%rbx
	.cfi_def_cfa_offset 16
	popq	%rbp
	.cfi_def_cfa_offset 8
	ret
	.cfi_endproc
.LFE4376:
	.size	_ZN6Shader6UnbindEv, .-_ZN6Shader6UnbindEv
	.align 2
	.p2align 4
	.globl	_ZN6Shader6DeleteEv
	.type	_ZN6Shader6DeleteEv, @function
_ZN6Shader6DeleteEv:
.LFB4377:
	.cfi_startproc
	pushq	%rbp
	.cfi_def_cfa_offset 16
	.cfi_offset 6, -16
	pushq	%rbx
	.cfi_def_cfa_offset 24
	.cfi_offset 3, -24
	movq	%rdi, %rbx
	subq	$8, %rsp
	.cfi_def_cfa_offset 32
	.p2align 4,,10
	.p2align 3
.L426:
	call	glGetError@PLT
	testl	%eax, %eax
	jne	.L426
	movl	(%rbx), %edi
	leaq	.LC3(%rip), %rbp
	leaq	.LC13(%rip), %rbx
	call	*__glewDeleteProgram(%rip)
	jmp	.L428
	.p2align 4,,10
	.p2align 3
.L431:
	leaq	.LC12(%rip), %r8
	movq	%rbp, %rcx
	movq	%rbx, %rsi
	xorl	%eax, %eax
	movl	$12, %edx
	movl	$2, %edi
	call	_ZN6logger3logEiPKciS1_S1_z.constprop.0
.L428:
	call	glGetError@PLT
	movl	%eax, %r9d
	testl	%eax, %eax
	jne	.L431
	addq	$8, %rsp
	.cfi_def_cfa_offset 24
	popq	%rbx
	.cfi_def_cfa_offset 16
	popq	%rbp
	.cfi_def_cfa_offset 8
	ret
	.cfi_endproc
.LFE4377:
	.size	_ZN6Shader6DeleteEv, .-_ZN6Shader6DeleteEv
	.p2align 4
	.globl	_Z11getLocationjPKc
	.type	_Z11getLocationjPKc, @function
_Z11getLocationjPKc:
.LFB4378:
	.cfi_startproc
	pushq	%r12
	.cfi_def_cfa_offset 16
	.cfi_offset 12, -16
	movq	%rsi, %r12
	pushq	%rbp
	.cfi_def_cfa_offset 24
	.cfi_offset 6, -24
	movl	%edi, %ebp
	pushq	%rbx
	.cfi_def_cfa_offset 32
	.cfi_offset 3, -32
	.p2align 4,,10
	.p2align 3
.L433:
	call	glGetError@PLT
	testl	%eax, %eax
	jne	.L433
	movq	%r12, %rsi
	movl	%ebp, %edi
	leaq	.LC13(%rip), %rbx
	call	*__glewGetUniformLocation(%rip)
	leaq	.LC3(%rip), %rbp
	movl	%eax, %r12d
	jmp	.L435
	.p2align 4,,10
	.p2align 3
.L438:
	leaq	.LC12(%rip), %r8
	movq	%rbp, %rcx
	movq	%rbx, %rsi
	xorl	%eax, %eax
	movl	$12, %edx
	movl	$2, %edi
	call	_ZN6logger3logEiPKciS1_S1_z.constprop.0
.L435:
	call	glGetError@PLT
	movl	%eax, %r9d
	testl	%eax, %eax
	jne	.L438
	movl	%r12d, %eax
	popq	%rbx
	.cfi_def_cfa_offset 24
	popq	%rbp
	.cfi_def_cfa_offset 16
	popq	%r12
	.cfi_def_cfa_offset 8
	ret
	.cfi_endproc
.LFE4378:
	.size	_Z11getLocationjPKc, .-_Z11getLocationjPKc
	.align 2
	.p2align 4
	.globl	_ZN6Shader10uploadVec3EPKcN3glm3vecILi3EfLNS2_9qualifierE0EEE
	.type	_ZN6Shader10uploadVec3EPKcN3glm3vecILi3EfLNS2_9qualifierE0EEE, @function
_ZN6Shader10uploadVec3EPKcN3glm3vecILi3EfLNS2_9qualifierE0EEE:
.LFB4379:
	.cfi_startproc
	pushq	%r13
	.cfi_def_cfa_offset 16
	.cfi_offset 13, -16
	pushq	%r12
	.cfi_def_cfa_offset 24
	.cfi_offset 12, -24
	movq	%rdi, %r12
	pushq	%rbp
	.cfi_def_cfa_offset 32
	.cfi_offset 6, -32
	movq	%rsi, %rbp
	pushq	%rbx
	.cfi_def_cfa_offset 40
	.cfi_offset 3, -40
	subq	$24, %rsp
	.cfi_def_cfa_offset 64
	movq	%xmm0, (%rsp)
	movss	%xmm1, 8(%rsp)
	.p2align 4,,10
	.p2align 3
.L440:
	call	glGetError@PLT
	testl	%eax, %eax
	jne	.L440
	movl	(%r12), %edi
	leaq	.LC3(%rip), %r13
	leaq	.LC13(%rip), %rbx
	call	*__glewUseProgram(%rip)
	jmp	.L442
	.p2align 4,,10
	.p2align 3
.L449:
	leaq	.LC12(%rip), %r8
	movq	%r13, %rcx
	movq	%rbx, %rsi
	xorl	%eax, %eax
	movl	$12, %edx
	movl	$2, %edi
	call	_ZN6logger3logEiPKciS1_S1_z.constprop.0
.L442:
	call	glGetError@PLT
	movl	%eax, %r9d
	testl	%eax, %eax
	jne	.L449
	movl	(%r12), %r12d
	.p2align 4,,10
	.p2align 3
.L443:
	call	glGetError@PLT
	testl	%eax, %eax
	jne	.L443
	movq	%rbp, %rsi
	movl	%r12d, %edi
	leaq	.LC3(%rip), %rbp
	call	*__glewGetUniformLocation(%rip)
	leaq	.LC13(%rip), %rbx
	movl	%eax, %r12d
	jmp	.L445
	.p2align 4,,10
	.p2align 3
.L450:
	leaq	.LC12(%rip), %r8
	movq	%rbp, %rcx
	movq	%rbx, %rsi
	xorl	%eax, %eax
	movl	$12, %edx
	movl	$2, %edi
	call	_ZN6logger3logEiPKciS1_S1_z.constprop.0
.L445:
	call	glGetError@PLT
	movl	%eax, %r9d
	testl	%eax, %eax
	jne	.L450
	movss	8(%rsp), %xmm2
	movss	4(%rsp), %xmm1
	movl	%r12d, %edi
	movss	(%rsp), %xmm0
	addq	$24, %rsp
	.cfi_def_cfa_offset 40
	popq	%rbx
	.cfi_def_cfa_offset 32
	popq	%rbp
	.cfi_def_cfa_offset 24
	popq	%r12
	.cfi_def_cfa_offset 16
	popq	%r13
	.cfi_def_cfa_offset 8
	jmp	*__glewUniform3f(%rip)
	.cfi_endproc
.LFE4379:
	.size	_ZN6Shader10uploadVec3EPKcN3glm3vecILi3EfLNS2_9qualifierE0EEE, .-_ZN6Shader10uploadVec3EPKcN3glm3vecILi3EfLNS2_9qualifierE0EEE
	.align 2
	.p2align 4
	.globl	_ZN6Shader10uploadMat4EPKcN3glm3matILi4ELi4EfLNS2_9qualifierE0EEE
	.type	_ZN6Shader10uploadMat4EPKcN3glm3matILi4ELi4EfLNS2_9qualifierE0EEE, @function
_ZN6Shader10uploadMat4EPKcN3glm3matILi4ELi4EfLNS2_9qualifierE0EEE:
.LFB4380:
	.cfi_startproc
	pushq	%r13
	.cfi_def_cfa_offset 16
	.cfi_offset 13, -16
	pushq	%r12
	.cfi_def_cfa_offset 24
	.cfi_offset 12, -24
	movq	%rdi, %r12
	pushq	%rbp
	.cfi_def_cfa_offset 32
	.cfi_offset 6, -32
	movq	%rsi, %rbp
	pushq	%rbx
	.cfi_def_cfa_offset 40
	.cfi_offset 3, -40
	subq	$8, %rsp
	.cfi_def_cfa_offset 48
	.p2align 4,,10
	.p2align 3
.L452:
	call	glGetError@PLT
	testl	%eax, %eax
	jne	.L452
	movl	(%r12), %edi
	leaq	.LC3(%rip), %r13
	leaq	.LC13(%rip), %rbx
	call	*__glewUseProgram(%rip)
	jmp	.L454
	.p2align 4,,10
	.p2align 3
.L461:
	leaq	.LC12(%rip), %r8
	movq	%r13, %rcx
	movq	%rbx, %rsi
	xorl	%eax, %eax
	movl	$12, %edx
	movl	$2, %edi
	call	_ZN6logger3logEiPKciS1_S1_z.constprop.0
.L454:
	call	glGetError@PLT
	movl	%eax, %r9d
	testl	%eax, %eax
	jne	.L461
	movl	(%r12), %r12d
	.p2align 4,,10
	.p2align 3
.L455:
	call	glGetError@PLT
	testl	%eax, %eax
	jne	.L455
	movq	%rbp, %rsi
	movl	%r12d, %edi
	leaq	.LC3(%rip), %rbp
	call	*__glewGetUniformLocation(%rip)
	leaq	.LC13(%rip), %rbx
	movl	%eax, %r12d
	jmp	.L457
	.p2align 4,,10
	.p2align 3
.L462:
	leaq	.LC12(%rip), %r8
	movq	%rbp, %rcx
	movq	%rbx, %rsi
	xorl	%eax, %eax
	movl	$12, %edx
	movl	$2, %edi
	call	_ZN6logger3logEiPKciS1_S1_z.constprop.0
.L457:
	call	glGetError@PLT
	movl	%eax, %r9d
	testl	%eax, %eax
	jne	.L462
	leaq	48(%rsp), %rcx
	movl	%r12d, %edi
	xorl	%edx, %edx
	movl	$1, %esi
	call	*__glewUniformMatrix4fv(%rip)
	addq	$8, %rsp
	.cfi_def_cfa_offset 40
	popq	%rbx
	.cfi_def_cfa_offset 32
	popq	%rbp
	.cfi_def_cfa_offset 24
	popq	%r12
	.cfi_def_cfa_offset 16
	popq	%r13
	.cfi_def_cfa_offset 8
	ret
	.cfi_endproc
.LFE4380:
	.size	_ZN6Shader10uploadMat4EPKcN3glm3matILi4ELi4EfLNS2_9qualifierE0EEE, .-_ZN6Shader10uploadMat4EPKcN3glm3matILi4ELi4EfLNS2_9qualifierE0EEE
	.align 2
	.p2align 4
	.globl	_ZN6Shader10uploadVec4EPKcN3glm3vecILi4EfLNS2_9qualifierE0EEE
	.type	_ZN6Shader10uploadVec4EPKcN3glm3vecILi4EfLNS2_9qualifierE0EEE, @function
_ZN6Shader10uploadVec4EPKcN3glm3vecILi4EfLNS2_9qualifierE0EEE:
.LFB4381:
	.cfi_startproc
	pushq	%r15
	.cfi_def_cfa_offset 16
	.cfi_offset 15, -16
	movq	%rsi, %r15
	pushq	%r14
	.cfi_def_cfa_offset 24
	.cfi_offset 14, -24
	movq	%rdi, %r14
	pushq	%r13
	.cfi_def_cfa_offset 32
	.cfi_offset 13, -32
	movq	%xmm1, %r13
	pushq	%r12
	.cfi_def_cfa_offset 40
	.cfi_offset 12, -40
	movq	%xmm0, %r12
	pushq	%rbp
	.cfi_def_cfa_offset 48
	.cfi_offset 6, -48
	pushq	%rbx
	.cfi_def_cfa_offset 56
	.cfi_offset 3, -56
	subq	$8, %rsp
	.cfi_def_cfa_offset 64
	.p2align 4,,10
	.p2align 3
.L464:
	call	glGetError@PLT
	testl	%eax, %eax
	jne	.L464
	movl	(%r14), %edi
	leaq	.LC3(%rip), %rbp
	leaq	.LC13(%rip), %rbx
	call	*__glewUseProgram(%rip)
	jmp	.L466
	.p2align 4,,10
	.p2align 3
.L473:
	leaq	.LC12(%rip), %r8
	movq	%rbp, %rcx
	movq	%rbx, %rsi
	xorl	%eax, %eax
	movl	$12, %edx
	movl	$2, %edi
	call	_ZN6logger3logEiPKciS1_S1_z.constprop.0
.L466:
	call	glGetError@PLT
	movl	%eax, %r9d
	testl	%eax, %eax
	jne	.L473
	movl	(%r14), %ebp
	.p2align 4,,10
	.p2align 3
.L467:
	call	glGetError@PLT
	testl	%eax, %eax
	jne	.L467
	movl	%ebp, %edi
	movq	%r15, %rsi
	leaq	.LC3(%rip), %rbp
	call	*__glewGetUniformLocation(%rip)
	leaq	.LC13(%rip), %rbx
	movl	%eax, %r14d
	jmp	.L469
	.p2align 4,,10
	.p2align 3
.L474:
	leaq	.LC12(%rip), %r8
	movq	%rbp, %rcx
	movq	%rbx, %rsi
	xorl	%eax, %eax
	movl	$12, %edx
	movl	$2, %edi
	call	_ZN6logger3logEiPKciS1_S1_z.constprop.0
.L469:
	call	glGetError@PLT
	movl	%eax, %r9d
	testl	%eax, %eax
	jne	.L474
	movq	%r13, %rax
	addq	$8, %rsp
	.cfi_def_cfa_offset 56
	movd	%r13d, %xmm2
	movl	%r14d, %edi
	shrq	$32, %rax
	popq	%rbx
	.cfi_def_cfa_offset 48
	movd	%r12d, %xmm0
	popq	%rbp
	.cfi_def_cfa_offset 40
	movq	%rax, %rdx
	movq	%r12, %rax
	popq	%r12
	.cfi_def_cfa_offset 32
	popq	%r13
	.cfi_def_cfa_offset 24
	shrq	$32, %rax
	popq	%r14
	.cfi_def_cfa_offset 16
	movd	%edx, %xmm3
	popq	%r15
	.cfi_def_cfa_offset 8
	movd	%eax, %xmm1
	jmp	*__glewUniform4f(%rip)
	.cfi_endproc
.LFE4381:
	.size	_ZN6Shader10uploadVec4EPKcN3glm3vecILi4EfLNS2_9qualifierE0EEE, .-_ZN6Shader10uploadVec4EPKcN3glm3vecILi4EfLNS2_9qualifierE0EEE
	.align 2
	.p2align 4
	.globl	_ZN6Shader11uploadFloatEPKcf
	.type	_ZN6Shader11uploadFloatEPKcf, @function
_ZN6Shader11uploadFloatEPKcf:
.LFB4382:
	.cfi_startproc
	pushq	%r14
	.cfi_def_cfa_offset 16
	.cfi_offset 14, -16
	movd	%xmm0, %r14d
	pushq	%r13
	.cfi_def_cfa_offset 24
	.cfi_offset 13, -24
	movq	%rsi, %r13
	pushq	%r12
	.cfi_def_cfa_offset 32
	.cfi_offset 12, -32
	movq	%rdi, %r12
	pushq	%rbp
	.cfi_def_cfa_offset 40
	.cfi_offset 6, -40
	pushq	%rbx
	.cfi_def_cfa_offset 48
	.cfi_offset 3, -48
	.p2align 4,,10
	.p2align 3
.L476:
	call	glGetError@PLT
	testl	%eax, %eax
	jne	.L476
	movl	(%r12), %edi
	leaq	.LC3(%rip), %rbp
	leaq	.LC13(%rip), %rbx
	call	*__glewUseProgram(%rip)
	jmp	.L478
	.p2align 4,,10
	.p2align 3
.L485:
	leaq	.LC12(%rip), %r8
	movq	%rbp, %rcx
	movq	%rbx, %rsi
	xorl	%eax, %eax
	movl	$12, %edx
	movl	$2, %edi
	call	_ZN6logger3logEiPKciS1_S1_z.constprop.0
.L478:
	call	glGetError@PLT
	movl	%eax, %r9d
	testl	%eax, %eax
	jne	.L485
	movl	(%r12), %ebp
	.p2align 4,,10
	.p2align 3
.L479:
	call	glGetError@PLT
	testl	%eax, %eax
	jne	.L479
	movl	%ebp, %edi
	movq	%r13, %rsi
	leaq	.LC3(%rip), %rbp
	call	*__glewGetUniformLocation(%rip)
	leaq	.LC13(%rip), %rbx
	movl	%eax, %r12d
	jmp	.L481
	.p2align 4,,10
	.p2align 3
.L486:
	leaq	.LC12(%rip), %r8
	movq	%rbp, %rcx
	movq	%rbx, %rsi
	xorl	%eax, %eax
	movl	$12, %edx
	movl	$2, %edi
	call	_ZN6logger3logEiPKciS1_S1_z.constprop.0
.L481:
	call	glGetError@PLT
	movl	%eax, %r9d
	testl	%eax, %eax
	jne	.L486
	popq	%rbx
	.cfi_def_cfa_offset 40
	movd	%r14d, %xmm0
	popq	%rbp
	.cfi_def_cfa_offset 32
	movl	%r12d, %edi
	popq	%r12
	.cfi_def_cfa_offset 24
	popq	%r13
	.cfi_def_cfa_offset 16
	popq	%r14
	.cfi_def_cfa_offset 8
	jmp	*__glewUniform1f(%rip)
	.cfi_endproc
.LFE4382:
	.size	_ZN6Shader11uploadFloatEPKcf, .-_ZN6Shader11uploadFloatEPKcf
	.align 2
	.p2align 4
	.globl	_ZN6CameraC2EP6WindowN3glm3vecILi3EfLNS2_9qualifierE0EEE
	.type	_ZN6CameraC2EP6WindowN3glm3vecILi3EfLNS2_9qualifierE0EEE, @function
_ZN6CameraC2EP6WindowN3glm3vecILi3EfLNS2_9qualifierE0EEE:
.LFB4384:
	.cfi_startproc
	movq	.LC23(%rip), %rax
	movss	%xmm1, -8(%rsp)
	movaps	.LC22(%rip), %xmm1
	movq	%rsi, 80(%rdi)
	movq	%rax, 104(%rdi)
	movl	-8(%rsp), %eax
	movups	%xmm1, 88(%rdi)
	movl	%eax, 120(%rdi)
	movq	%xmm0, 112(%rdi)
	ret
	.cfi_endproc
.LFE4384:
	.size	_ZN6CameraC2EP6WindowN3glm3vecILi3EfLNS2_9qualifierE0EEE, .-_ZN6CameraC2EP6WindowN3glm3vecILi3EfLNS2_9qualifierE0EEE
	.globl	_ZN6CameraC1EP6WindowN3glm3vecILi3EfLNS2_9qualifierE0EEE
	.set	_ZN6CameraC1EP6WindowN3glm3vecILi3EfLNS2_9qualifierE0EEE,_ZN6CameraC2EP6WindowN3glm3vecILi3EfLNS2_9qualifierE0EEE
	.align 2
	.p2align 4
	.globl	_ZN6CameraC2EP6WindowN3glm3vecILi3EfLNS2_9qualifierE0EEES5_S5_
	.type	_ZN6CameraC2EP6WindowN3glm3vecILi3EfLNS2_9qualifierE0EEES5_S5_, @function
_ZN6CameraC2EP6WindowN3glm3vecILi3EfLNS2_9qualifierE0EEES5_S5_:
.LFB4387:
	.cfi_startproc
	movss	%xmm1, -8(%rsp)
	movl	-8(%rsp), %eax
	movss	%xmm3, -24(%rsp)
	movl	%eax, 120(%rdi)
	movl	-24(%rsp), %eax
	movss	%xmm5, -40(%rsp)
	movl	%eax, 96(%rdi)
	movl	-40(%rsp), %eax
	movq	%rsi, 80(%rdi)
	movl	%eax, 108(%rdi)
	movq	%xmm0, 112(%rdi)
	movq	%xmm2, 88(%rdi)
	movq	%xmm4, 100(%rdi)
	ret
	.cfi_endproc
.LFE4387:
	.size	_ZN6CameraC2EP6WindowN3glm3vecILi3EfLNS2_9qualifierE0EEES5_S5_, .-_ZN6CameraC2EP6WindowN3glm3vecILi3EfLNS2_9qualifierE0EEES5_S5_
	.globl	_ZN6CameraC1EP6WindowN3glm3vecILi3EfLNS2_9qualifierE0EEES5_S5_
	.set	_ZN6CameraC1EP6WindowN3glm3vecILi3EfLNS2_9qualifierE0EEES5_S5_,_ZN6CameraC2EP6WindowN3glm3vecILi3EfLNS2_9qualifierE0EEES5_S5_
	.section	.rodata.str1.8
	.align 8
.LC27:
	.string	"glm::mat<4, 4, T, glm::packed_highp> glm::perspectiveRH_NO(T, T, T, T) [with T = float]"
	.align 8
.LC28:
	.string	"/usr/include/glm/ext/matrix_clip_space.inl"
	.align 8
.LC29:
	.string	"abs(aspect - std::numeric_limits<T>::epsilon()) > static_cast<T>(0)"
	.text
	.align 2
	.p2align 4
	.globl	_ZN6Camera15updateCamMatrixEv
	.type	_ZN6Camera15updateCamMatrixEv, @function
_ZN6Camera15updateCamMatrixEv:
.LFB4391:
	.cfi_startproc
	pushq	%r12
	.cfi_def_cfa_offset 16
	.cfi_offset 12, -16
	movq	%rdi, %r12
	pushq	%rbx
	.cfi_def_cfa_offset 24
	.cfi_offset 3, -24
	movq	%rsi, %rbx
	subq	$104, %rsp
	.cfi_def_cfa_offset 128
	movss	116(%rsi), %xmm7
	movss	112(%rsi), %xmm3
	movss	92(%rsi), %xmm4
	movss	88(%rsi), %xmm2
	movss	120(%rsi), %xmm5
	movss	96(%rsi), %xmm8
	addss	%xmm7, %xmm4
	addss	%xmm3, %xmm2
	addss	%xmm5, %xmm8
	subss	%xmm7, %xmm4
	subss	%xmm3, %xmm2
	subss	%xmm5, %xmm8
	movaps	%xmm4, %xmm0
	movaps	%xmm2, %xmm1
	mulss	%xmm2, %xmm1
	mulss	%xmm4, %xmm0
	addss	%xmm1, %xmm0
	movaps	%xmm8, %xmm1
	mulss	%xmm8, %xmm1
	addss	%xmm1, %xmm0
	pxor	%xmm1, %xmm1
	ucomiss	%xmm0, %xmm1
	ja	.L500
	sqrtss	%xmm0, %xmm0
.L492:
	movss	.LC18(%rip), %xmm6
	movaps	%xmm8, %xmm12
	movss	100(%rbx), %xmm8
	movaps	%xmm6, %xmm9
	divss	%xmm0, %xmm9
	movss	104(%rbx), %xmm0
	mulss	%xmm9, %xmm4
	mulss	%xmm9, %xmm2
	mulss	%xmm9, %xmm12
	movaps	%xmm0, %xmm9
	movaps	%xmm4, %xmm14
	movaps	%xmm8, %xmm4
	mulss	%xmm14, %xmm4
	mulss	%xmm2, %xmm9
	mulss	%xmm12, %xmm0
	mulss	%xmm12, %xmm8
	subss	%xmm4, %xmm9
	movss	108(%rbx), %xmm4
	movaps	%xmm4, %xmm10
	mulss	%xmm2, %xmm10
	mulss	%xmm14, %xmm4
	subss	%xmm10, %xmm8
	subss	%xmm0, %xmm4
	movaps	%xmm8, %xmm0
	mulss	%xmm8, %xmm0
	movaps	%xmm4, %xmm10
	mulss	%xmm4, %xmm10
	addss	%xmm10, %xmm0
	movaps	%xmm9, %xmm10
	mulss	%xmm9, %xmm10
	addss	%xmm10, %xmm0
	ucomiss	%xmm0, %xmm1
	ja	.L501
	sqrtss	%xmm0, %xmm0
.L495:
	movaps	%xmm6, %xmm10
	movaps	%xmm9, %xmm11
	movaps	%xmm8, %xmm13
	movq	80(%rbx), %rcx
	divss	%xmm0, %xmm10
	movaps	%xmm2, %xmm8
	movl	12(%rcx), %eax
	cltd
	idivl	8(%rcx)
	mulss	%xmm10, %xmm11
	mulss	%xmm10, %xmm13
	mulss	%xmm4, %xmm10
	movss	%xmm11, 36(%rsp)
	movaps	%xmm13, %xmm0
	movss	%xmm13, 40(%rsp)
	mulss	%xmm2, %xmm0
	movaps	%xmm10, %xmm4
	mulss	%xmm14, %xmm4
	subss	%xmm0, %xmm4
	movaps	%xmm10, %xmm0
	mulss	%xmm12, %xmm0
	movaps	%xmm4, %xmm9
	movss	%xmm4, 4(%rsp)
	movaps	%xmm11, %xmm4
	mulss	%xmm2, %xmm4
	mulss	%xmm5, %xmm9
	subss	%xmm0, %xmm4
	movaps	%xmm11, %xmm0
	mulss	%xmm14, %xmm0
	mulss	%xmm5, %xmm11
	movss	%xmm4, 44(%rsp)
	mulss	%xmm12, %xmm5
	movaps	%xmm4, %xmm15
	movaps	%xmm13, %xmm4
	mulss	%xmm12, %xmm4
	mulss	%xmm7, %xmm13
	mulss	%xmm7, %xmm15
	mulss	%xmm14, %xmm7
	subss	%xmm0, %xmm4
	movaps	%xmm3, %xmm0
	mulss	%xmm10, %xmm0
	movaps	%xmm4, %xmm6
	movss	%xmm4, 8(%rsp)
	movss	.LC25(%rip), %xmm4
	xorps	%xmm4, %xmm8
	movss	%xmm8, 12(%rsp)
	movaps	%xmm14, %xmm8
	addss	%xmm13, %xmm0
	xorps	%xmm4, %xmm8
	movss	%xmm8, 16(%rsp)
	movaps	%xmm12, %xmm8
	xorps	%xmm4, %xmm8
	addss	%xmm11, %xmm0
	movss	%xmm8, 20(%rsp)
	xorps	%xmm4, %xmm0
	movss	%xmm0, 24(%rsp)
	movaps	%xmm6, %xmm0
	mulss	%xmm3, %xmm0
	mulss	%xmm2, %xmm3
	addss	%xmm15, %xmm0
	addss	%xmm7, %xmm3
	pxor	%xmm7, %xmm7
	cvtsi2ssl	%eax, %xmm7
	addss	%xmm9, %xmm0
	addss	%xmm5, %xmm3
	movss	68(%rbx), %xmm5
	movaps	%xmm7, %xmm8
	xorps	%xmm4, %xmm0
	subss	.LC26(%rip), %xmm8
	movss	%xmm0, 28(%rsp)
	movss	64(%rbx), %xmm0
	movss	%xmm3, 32(%rsp)
	movss	72(%rbx), %xmm3
	comiss	%xmm1, %xmm8
	jnb	.L496
	xorps	%xmm4, %xmm8
.L496:
	comiss	%xmm1, %xmm8
	jbe	.L503
	mulss	.LC30(%rip), %xmm0
	movss	%xmm2, 92(%rsp)
	movss	%xmm14, 88(%rsp)
	movss	%xmm12, 84(%rsp)
	movss	%xmm10, 60(%rsp)
	movss	%xmm7, 56(%rsp)
	movss	%xmm5, 52(%rsp)
	movss	%xmm3, 48(%rsp)
	call	tanf@PLT
	movss	56(%rsp), %xmm7
	pxor	%xmm1, %xmm1
	movss	.LC18(%rip), %xmm6
	movss	48(%rsp), %xmm3
	movss	52(%rsp), %xmm5
	movss	.LC25(%rip), %xmm4
	movq	%r12, %rax
	mulss	%xmm0, %xmm7
	movaps	%xmm6, %xmm11
	movss	60(%rsp), %xmm10
	movss	20(%rsp), %xmm12
	movaps	%xmm3, %xmm9
	movss	44(%rsp), %xmm14
	movss	8(%rsp), %xmm15
	movaps	%xmm10, %xmm2
	addss	%xmm5, %xmm9
	movss	36(%rsp), %xmm8
	movss	12(%rsp), %xmm13
	mulss	%xmm1, %xmm2
	mulss	%xmm1, %xmm12
	divss	%xmm7, %xmm11
	movaps	%xmm6, %xmm7
	xorps	%xmm4, %xmm9
	mulss	%xmm1, %xmm15
	mulss	%xmm1, %xmm8
	movss	%xmm2, 48(%rsp)
	mulss	%xmm1, %xmm13
	movss	%xmm12, 60(%rsp)
	movss	4(%rsp), %xmm12
	mulss	%xmm1, %xmm12
	movss	%xmm12, 64(%rsp)
	divss	%xmm0, %xmm7
	movaps	%xmm3, %xmm0
	addss	%xmm3, %xmm3
	subss	%xmm5, %xmm0
	mulss	%xmm5, %xmm3
	movaps	%xmm2, %xmm5
	movss	16(%rsp), %xmm2
	mulss	%xmm11, %xmm10
	addss	%xmm15, %xmm5
	mulss	%xmm1, %xmm2
	xorps	%xmm4, %xmm3
	movss	%xmm2, 52(%rsp)
	movaps	%xmm14, %xmm2
	mulss	%xmm1, %xmm2
	divss	%xmm0, %xmm3
	movss	%xmm2, 44(%rsp)
	movaps	%xmm2, %xmm4
	movaps	%xmm12, %xmm2
	addss	%xmm8, %xmm2
	mulss	%xmm7, %xmm14
	movaps	%xmm2, %xmm12
	movss	24(%rsp), %xmm2
	mulss	%xmm1, %xmm2
	movss	%xmm2, 76(%rsp)
	divss	%xmm0, %xmm9
	movss	32(%rsp), %xmm0
	mulss	%xmm1, %xmm0
	movss	%xmm3, 80(%rsp)
	movaps	%xmm3, %xmm6
	movss	40(%rsp), %xmm3
	mulss	%xmm1, %xmm6
	mulss	%xmm1, %xmm3
	movss	%xmm0, 68(%rsp)
	movaps	%xmm10, %xmm0
	movss	8(%rsp), %xmm10
	addss	%xmm15, %xmm0
	movss	48(%rsp), %xmm15
	mulss	%xmm7, %xmm10
	addss	%xmm3, %xmm4
	movss	%xmm3, 56(%rsp)
	movss	28(%rsp), %xmm3
	addss	%xmm13, %xmm0
	mulss	%xmm1, %xmm3
	addss	%xmm10, %xmm15
	addss	%xmm1, %xmm0
	addss	%xmm13, %xmm15
	movss	12(%rsp), %xmm13
	movss	%xmm3, 72(%rsp)
	addss	%xmm2, %xmm3
	movss	92(%rsp), %xmm2
	mulss	%xmm9, %xmm13
	addss	%xmm1, %xmm15
	unpcklps	%xmm15, %xmm0
	movss	52(%rsp), %xmm15
	addss	%xmm5, %xmm13
	addss	%xmm2, %xmm5
	movaps	%xmm0, %xmm10
	movss	40(%rsp), %xmm0
	mulss	%xmm11, %xmm0
	addss	%xmm1, %xmm5
	addss	%xmm6, %xmm13
	addss	44(%rsp), %xmm0
	unpcklps	%xmm5, %xmm13
	movss	56(%rsp), %xmm5
	addss	%xmm15, %xmm0
	movlhps	%xmm13, %xmm10
	addss	%xmm14, %xmm5
	movups	%xmm10, (%rbx)
	movaps	%xmm10, %xmm2
	movss	16(%rsp), %xmm10
	movss	88(%rsp), %xmm14
	movups	%xmm2, (%r12)
	addss	%xmm1, %xmm0
	mulss	%xmm9, %xmm10
	addss	%xmm15, %xmm5
	movss	68(%rsp), %xmm15
	addss	%xmm1, %xmm5
	addss	%xmm4, %xmm10
	addss	%xmm14, %xmm4
	movss	60(%rsp), %xmm14
	unpcklps	%xmm5, %xmm0
	movss	4(%rsp), %xmm5
	addss	%xmm1, %xmm4
	addss	%xmm6, %xmm10
	mulss	%xmm7, %xmm5
	unpcklps	%xmm4, %xmm10
	movss	36(%rsp), %xmm4
	movlhps	%xmm10, %xmm0
	mulss	%xmm11, %xmm4
	movups	%xmm0, 16(%rbx)
	addss	%xmm8, %xmm5
	movss	20(%rsp), %xmm8
	addss	64(%rsp), %xmm4
	movups	%xmm0, 16(%r12)
	mulss	%xmm9, %xmm8
	addss	%xmm14, %xmm4
	addss	%xmm14, %xmm5
	addss	%xmm1, %xmm4
	addss	%xmm1, %xmm5
	addss	%xmm12, %xmm8
	unpcklps	%xmm5, %xmm4
	movss	24(%rsp), %xmm5
	addss	%xmm6, %xmm8
	movaps	%xmm12, %xmm6
	movss	84(%rsp), %xmm12
	mulss	%xmm11, %xmm5
	addss	%xmm12, %xmm6
	addss	72(%rsp), %xmm5
	addss	%xmm1, %xmm6
	addss	%xmm15, %xmm5
	unpcklps	%xmm6, %xmm8
	movss	28(%rsp), %xmm6
	addss	%xmm1, %xmm5
	movlhps	%xmm8, %xmm4
	mulss	%xmm7, %xmm6
	movups	%xmm4, 32(%rbx)
	addss	76(%rsp), %xmm6
	movups	%xmm4, 32(%r12)
	addss	%xmm15, %xmm6
	movss	32(%rsp), %xmm15
	mulss	%xmm15, %xmm9
	movaps	%xmm6, %xmm7
	addss	%xmm1, %xmm7
	movaps	%xmm9, %xmm6
	addss	%xmm3, %xmm6
	subss	%xmm15, %xmm3
	addss	80(%rsp), %xmm6
	addss	%xmm1, %xmm3
	movaps	%xmm5, %xmm1
	unpcklps	%xmm7, %xmm1
	unpcklps	%xmm3, %xmm6
	movlhps	%xmm6, %xmm1
	movups	%xmm1, 48(%rbx)
	movups	%xmm1, 48(%r12)
	addq	$104, %rsp
	.cfi_remember_state
	.cfi_def_cfa_offset 24
	popq	%rbx
	.cfi_def_cfa_offset 16
	popq	%r12
	.cfi_def_cfa_offset 8
	ret
.L501:
	.cfi_restore_state
	movss	%xmm2, 36(%rsp)
	movss	%xmm14, 32(%rsp)
	movss	%xmm12, 28(%rsp)
	movss	%xmm4, 24(%rsp)
	movss	%xmm8, 20(%rsp)
	movss	%xmm9, 16(%rsp)
	movss	%xmm3, 12(%rsp)
	movss	%xmm7, 8(%rsp)
	movss	%xmm5, 4(%rsp)
	call	sqrtf@PLT
	movss	36(%rsp), %xmm2
	pxor	%xmm1, %xmm1
	movss	.LC18(%rip), %xmm6
	movss	32(%rsp), %xmm14
	movss	28(%rsp), %xmm12
	movss	24(%rsp), %xmm4
	movss	20(%rsp), %xmm8
	movss	16(%rsp), %xmm9
	movss	12(%rsp), %xmm3
	movss	8(%rsp), %xmm7
	movss	4(%rsp), %xmm5
	jmp	.L495
.L500:
	movss	%xmm2, 24(%rsp)
	movss	%xmm4, 20(%rsp)
	movss	%xmm8, 16(%rsp)
	movss	%xmm3, 12(%rsp)
	movss	%xmm7, 8(%rsp)
	movss	%xmm5, 4(%rsp)
	call	sqrtf@PLT
	movss	24(%rsp), %xmm2
	pxor	%xmm1, %xmm1
	movss	20(%rsp), %xmm4
	movss	16(%rsp), %xmm8
	movss	12(%rsp), %xmm3
	movss	8(%rsp), %xmm7
	movss	4(%rsp), %xmm5
	jmp	.L492
.L503:
	leaq	.LC27(%rip), %rcx
	movl	$251, %edx
	leaq	.LC28(%rip), %rsi
	leaq	.LC29(%rip), %rdi
	call	__assert_fail@PLT
	.cfi_endproc
.LFE4391:
	.size	_ZN6Camera15updateCamMatrixEv, .-_ZN6Camera15updateCamMatrixEv
	.align 2
	.p2align 4
	.globl	_ZN6Camera12genCamMatrixEfff
	.type	_ZN6Camera12genCamMatrixEfff, @function
_ZN6Camera12genCamMatrixEfff:
.LFB4389:
	.cfi_startproc
	pushq	%r12
	.cfi_def_cfa_offset 16
	.cfi_offset 12, -16
	movq	%rdi, %r12
	subq	$16, %rsp
	.cfi_def_cfa_offset 32
	movq	%fs:40, %rax
	movq	%rax, 8(%rsp)
	xorl	%eax, %eax
	mulss	.LC31(%rip), %xmm0
	movss	%xmm2, 72(%rsi)
	unpcklps	%xmm1, %xmm0
	movlps	%xmm0, 64(%rsi)
	call	_ZN6Camera15updateCamMatrixEv
	movq	8(%rsp), %rax
	subq	%fs:40, %rax
	jne	.L507
	addq	$16, %rsp
	.cfi_remember_state
	.cfi_def_cfa_offset 16
	movq	%r12, %rax
	popq	%r12
	.cfi_def_cfa_offset 8
	ret
.L507:
	.cfi_restore_state
	call	__stack_chk_fail@PLT
	.cfi_endproc
.LFE4389:
	.size	_ZN6Camera12genCamMatrixEfff, .-_ZN6Camera12genCamMatrixEfff
	.align 2
	.p2align 4
	.globl	_ZN6Camera15uploadCamMatrixEPKcP6Shader
	.type	_ZN6Camera15uploadCamMatrixEPKcP6Shader, @function
_ZN6Camera15uploadCamMatrixEPKcP6Shader:
.LFB4407:
	.cfi_startproc
	pushq	%r14
	.cfi_def_cfa_offset 16
	.cfi_offset 14, -16
	movq	%rsi, %r14
	movq	%rdi, %rsi
	pushq	%r13
	.cfi_def_cfa_offset 24
	.cfi_offset 13, -24
	movq	%rdx, %r13
	pushq	%r12
	.cfi_def_cfa_offset 32
	.cfi_offset 12, -32
	pushq	%rbp
	.cfi_def_cfa_offset 40
	.cfi_offset 6, -40
	pushq	%rbx
	.cfi_def_cfa_offset 48
	.cfi_offset 3, -48
	movq	%rdi, %rbx
	subq	$80, %rsp
	.cfi_def_cfa_offset 128
	movq	%fs:40, %rax
	movq	%rax, 72(%rsp)
	xorl	%eax, %eax
	movq	%rsp, %r12
	movq	%r12, %rdi
	call	_ZN6Camera15updateCamMatrixEv
	movdqu	(%rbx), %xmm0
	movdqu	16(%rbx), %xmm1
	movdqu	32(%rbx), %xmm2
	movdqu	48(%rbx), %xmm3
	movaps	%xmm0, (%rsp)
	movaps	%xmm1, 16(%rsp)
	movaps	%xmm2, 32(%rsp)
	movaps	%xmm3, 48(%rsp)
	.p2align 4,,10
	.p2align 3
.L509:
	call	glGetError@PLT
	testl	%eax, %eax
	jne	.L509
	movl	0(%r13), %edi
	leaq	.LC3(%rip), %rbp
	leaq	.LC13(%rip), %rbx
	call	*__glewUseProgram(%rip)
	jmp	.L511
	.p2align 4,,10
	.p2align 3
.L519:
	leaq	.LC12(%rip), %r8
	movq	%rbp, %rcx
	movq	%rbx, %rsi
	xorl	%eax, %eax
	movl	$12, %edx
	movl	$2, %edi
	call	_ZN6logger3logEiPKciS1_S1_z.constprop.0
.L511:
	call	glGetError@PLT
	movl	%eax, %r9d
	testl	%eax, %eax
	jne	.L519
	movl	0(%r13), %ebp
	.p2align 4,,10
	.p2align 3
.L512:
	call	glGetError@PLT
	testl	%eax, %eax
	jne	.L512
	movl	%ebp, %edi
	movq	%r14, %rsi
	leaq	.LC3(%rip), %rbp
	call	*__glewGetUniformLocation(%rip)
	leaq	.LC13(%rip), %rbx
	movl	%eax, %r13d
	jmp	.L514
	.p2align 4,,10
	.p2align 3
.L520:
	leaq	.LC12(%rip), %r8
	movq	%rbp, %rcx
	movq	%rbx, %rsi
	xorl	%eax, %eax
	movl	$12, %edx
	movl	$2, %edi
	call	_ZN6logger3logEiPKciS1_S1_z.constprop.0
.L514:
	call	glGetError@PLT
	movl	%eax, %r9d
	testl	%eax, %eax
	jne	.L520
	xorl	%edx, %edx
	movq	%r12, %rcx
	movl	$1, %esi
	movl	%r13d, %edi
	call	*__glewUniformMatrix4fv(%rip)
	movq	72(%rsp), %rax
	subq	%fs:40, %rax
	jne	.L521
	addq	$80, %rsp
	.cfi_remember_state
	.cfi_def_cfa_offset 48
	popq	%rbx
	.cfi_def_cfa_offset 40
	popq	%rbp
	.cfi_def_cfa_offset 32
	popq	%r12
	.cfi_def_cfa_offset 24
	popq	%r13
	.cfi_def_cfa_offset 16
	popq	%r14
	.cfi_def_cfa_offset 8
	ret
.L521:
	.cfi_restore_state
	call	__stack_chk_fail@PLT
	.cfi_endproc
.LFE4407:
	.size	_ZN6Camera15uploadCamMatrixEPKcP6Shader, .-_ZN6Camera15uploadCamMatrixEPKcP6Shader
	.align 2
	.p2align 4
	.globl	_ZN8Keyboard3useEP6WindowP6Camera
	.type	_ZN8Keyboard3useEP6WindowP6Camera, @function
_ZN8Keyboard3useEP6WindowP6Camera:
.LFB4471:
	.cfi_startproc
	pushq	%r12
	.cfi_def_cfa_offset 16
	.cfi_offset 12, -16
	movq	%rdi, %r12
	pushq	%rbp
	.cfi_def_cfa_offset 24
	.cfi_offset 6, -24
	pushq	%rbx
	.cfi_def_cfa_offset 32
	.cfi_offset 3, -32
	movq	%rdx, %rbx
	subq	$64, %rsp
	.cfi_def_cfa_offset 96
	movq	(%rsi), %rbp
	movl	$87, %esi
	movq	%rbp, %rdi
	call	glfwGetKey@PLT
	cmpl	$1, %eax
	jne	.L523
	movss	4(%r12), %xmm0
	movq	88(%rbx), %xmm2
	movss	96(%rbx), %xmm1
	mulss	%xmm0, %xmm1
	shufps	$0xe0, %xmm0, %xmm0
	mulps	%xmm2, %xmm0
	movq	112(%rbx), %xmm2
	addss	120(%rbx), %xmm1
	movss	%xmm1, 120(%rbx)
	addps	%xmm0, %xmm2
	movlps	%xmm2, 112(%rbx)
.L523:
	movl	$65, %esi
	movq	%rbp, %rdi
	call	glfwGetKey@PLT
	cmpl	$1, %eax
	je	.L576
.L524:
	movl	$83, %esi
	movq	%rbp, %rdi
	call	glfwGetKey@PLT
	cmpl	$1, %eax
	jne	.L528
	movss	4(%r12), %xmm1
	movss	96(%rbx), %xmm0
	movq	88(%rbx), %xmm2
	xorps	.LC25(%rip), %xmm0
	mulss	%xmm1, %xmm0
	shufps	$0xe0, %xmm1, %xmm1
	mulps	%xmm1, %xmm2
	movq	112(%rbx), %xmm1
	addss	120(%rbx), %xmm0
	movss	%xmm0, 120(%rbx)
	subps	%xmm2, %xmm1
	movlps	%xmm1, 112(%rbx)
.L528:
	movl	$68, %esi
	movq	%rbp, %rdi
	call	glfwGetKey@PLT
	cmpl	$1, %eax
	je	.L577
.L529:
	movl	$340, %esi
	movq	%rbp, %rdi
	call	glfwGetKey@PLT
	cmpl	$1, %eax
	jne	.L533
	movss	4(%r12), %xmm0
	movss	108(%rbx), %xmm1
	movq	100(%rbx), %xmm2
	mulss	%xmm0, %xmm1
	shufps	$0xe0, %xmm0, %xmm0
	mulps	%xmm0, %xmm2
	movq	112(%rbx), %xmm0
	addss	120(%rbx), %xmm1
	movss	%xmm1, 120(%rbx)
	addps	%xmm2, %xmm0
	movlps	%xmm0, 112(%rbx)
.L533:
	movl	$341, %esi
	movq	%rbp, %rdi
	call	glfwGetKey@PLT
	cmpl	$1, %eax
	jne	.L534
	movss	4(%r12), %xmm1
	movss	108(%rbx), %xmm0
	movq	100(%rbx), %xmm2
	xorps	.LC25(%rip), %xmm0
	mulss	%xmm1, %xmm0
	shufps	$0xe0, %xmm1, %xmm1
	mulps	%xmm1, %xmm2
	movq	112(%rbx), %xmm1
	addss	120(%rbx), %xmm0
	movss	%xmm0, 120(%rbx)
	subps	%xmm2, %xmm1
	movlps	%xmm1, 112(%rbx)
.L534:
	movl	$265, %esi
	movq	%rbp, %rdi
	call	glfwGetKey@PLT
	cmpl	$1, %eax
	je	.L578
.L535:
	movl	$264, %esi
	movq	%rbp, %rdi
	call	glfwGetKey@PLT
	cmpl	$1, %eax
	je	.L579
.L542:
	movl	$263, %esi
	movq	%rbp, %rdi
	call	glfwGetKey@PLT
	cmpl	$1, %eax
	je	.L580
.L549:
	movl	$262, %esi
	movq	%rbp, %rdi
	call	glfwGetKey@PLT
	cmpl	$1, %eax
	je	.L581
.L553:
	movl	$32, %esi
	movq	%rbp, %rdi
	call	glfwGetKey@PLT
	cmpl	$1, %eax
	jne	.L557
	movss	12(%r12), %xmm0
	movss	%xmm0, 4(%r12)
.L522:
	addq	$64, %rsp
	.cfi_remember_state
	.cfi_def_cfa_offset 32
	popq	%rbx
	.cfi_def_cfa_offset 24
	popq	%rbp
	.cfi_def_cfa_offset 16
	popq	%r12
	.cfi_def_cfa_offset 8
	ret
	.p2align 4,,10
	.p2align 3
.L557:
	.cfi_restore_state
	movl	$32, %esi
	movq	%rbp, %rdi
	call	glfwGetKey@PLT
	testl	%eax, %eax
	jne	.L522
	movss	8(%r12), %xmm0
	movss	%xmm0, 4(%r12)
	addq	$64, %rsp
	.cfi_remember_state
	.cfi_def_cfa_offset 32
	popq	%rbx
	.cfi_def_cfa_offset 24
	popq	%rbp
	.cfi_def_cfa_offset 16
	popq	%r12
	.cfi_def_cfa_offset 8
	ret
	.p2align 4,,10
	.p2align 3
.L581:
	.cfi_restore_state
	movss	16(%r12), %xmm0
	leaq	60(%rsp), %rdi
	leaq	56(%rsp), %rsi
	xorps	.LC25(%rip), %xmm0
	mulss	.LC31(%rip), %xmm0
	call	sincosf@PLT
	movss	100(%rbx), %xmm2
	movss	104(%rbx), %xmm1
	pxor	%xmm10, %xmm10
	movss	108(%rbx), %xmm5
	movss	56(%rsp), %xmm9
	movaps	%xmm1, %xmm0
	movaps	%xmm2, %xmm3
	movss	60(%rsp), %xmm6
	mulss	%xmm2, %xmm3
	mulss	%xmm1, %xmm0
	addss	%xmm3, %xmm0
	movaps	%xmm5, %xmm3
	mulss	%xmm5, %xmm3
	addss	%xmm3, %xmm0
	ucomiss	%xmm0, %xmm10
	ja	.L574
	sqrtss	%xmm0, %xmm0
.L556:
	movss	.LC18(%rip), %xmm3
	movaps	%xmm6, %xmm13
	movaps	%xmm3, %xmm4
	subss	%xmm9, %xmm3
	divss	%xmm0, %xmm4
	movaps	%xmm3, %xmm12
	movaps	%xmm3, %xmm11
	mulss	%xmm4, %xmm1
	mulss	%xmm4, %xmm2
	mulss	%xmm4, %xmm5
	movaps	%xmm6, %xmm4
	mulss	%xmm1, %xmm12
	mulss	%xmm2, %xmm3
	mulss	%xmm5, %xmm11
	movaps	%xmm5, %xmm0
	mulss	%xmm5, %xmm4
	mulss	%xmm1, %xmm13
	mulss	%xmm2, %xmm6
	movaps	%xmm3, %xmm8
	movaps	%xmm3, %xmm7
	mulss	%xmm5, %xmm3
	movaps	%xmm12, %xmm5
	mulss	%xmm1, %xmm7
	mulss	%xmm2, %xmm5
	mulss	%xmm2, %xmm8
	mulss	%xmm11, %xmm2
	subss	%xmm13, %xmm3
	addss	%xmm4, %xmm7
	subss	%xmm4, %xmm5
	movaps	%xmm12, %xmm4
	mulss	%xmm1, %xmm4
	addss	%xmm9, %xmm8
	mulss	%xmm0, %xmm12
	addss	%xmm13, %xmm2
	mulss	%xmm11, %xmm1
	mulss	%xmm0, %xmm11
	movaps	%xmm8, %xmm13
	mulss	%xmm10, %xmm13
	addss	%xmm9, %xmm4
	movaps	%xmm12, %xmm14
	addss	%xmm6, %xmm14
	subss	%xmm6, %xmm1
	movaps	%xmm3, %xmm6
	mulss	%xmm10, %xmm6
	movaps	%xmm4, %xmm0
	movaps	%xmm11, %xmm12
	movss	92(%rbx), %xmm11
	mulss	%xmm10, %xmm0
	addss	%xmm9, %xmm12
	movaps	%xmm14, %xmm15
	movss	%xmm14, 24(%rsp)
	movaps	%xmm1, %xmm9
	mulss	%xmm10, %xmm15
	mulss	%xmm10, %xmm9
	movaps	%xmm12, %xmm14
	movss	%xmm12, 28(%rsp)
	movss	88(%rbx), %xmm12
	movss	%xmm6, 12(%rsp)
	mulss	%xmm10, %xmm14
	movaps	%xmm7, %xmm6
	addss	%xmm13, %xmm7
	movss	%xmm0, 16(%rsp)
	movaps	%xmm5, %xmm0
	addss	16(%rsp), %xmm5
	addss	12(%rsp), %xmm7
	mulss	%xmm10, %xmm6
	mulss	%xmm10, %xmm0
	mulss	%xmm2, %xmm10
	addss	%xmm15, %xmm5
	addss	%xmm9, %xmm2
	mulss	%xmm12, %xmm7
	addss	%xmm6, %xmm8
	addss	%xmm13, %xmm6
	mulss	%xmm11, %xmm5
	addss	%xmm0, %xmm4
	addss	12(%rsp), %xmm8
	addss	16(%rsp), %xmm0
	addss	24(%rsp), %xmm0
	addss	%xmm3, %xmm6
	addss	%xmm10, %xmm1
	addss	%xmm15, %xmm4
	mulss	%xmm12, %xmm8
	addss	%xmm14, %xmm2
	mulss	%xmm11, %xmm0
	addss	%xmm10, %xmm9
	addss	28(%rsp), %xmm9
	mulss	%xmm12, %xmm6
	addss	%xmm14, %xmm1
	mulss	%xmm11, %xmm4
	mulss	96(%rbx), %xmm2
	mulss	96(%rbx), %xmm1
	addss	%xmm8, %xmm5
	mulss	96(%rbx), %xmm9
	addss	%xmm0, %xmm6
	addss	%xmm7, %xmm4
	addss	%xmm2, %xmm5
	addss	%xmm1, %xmm4
	addss	%xmm9, %xmm6
	movss	%xmm5, 88(%rbx)
	movss	%xmm4, 92(%rbx)
	movss	%xmm6, 96(%rbx)
	jmp	.L553
	.p2align 4,,10
	.p2align 3
.L580:
	movss	.LC31(%rip), %xmm0
	leaq	60(%rsp), %rdi
	leaq	56(%rsp), %rsi
	mulss	16(%r12), %xmm0
	call	sincosf@PLT
	movss	100(%rbx), %xmm2
	movss	104(%rbx), %xmm1
	pxor	%xmm10, %xmm10
	movss	108(%rbx), %xmm5
	movss	56(%rsp), %xmm9
	movaps	%xmm1, %xmm0
	movaps	%xmm2, %xmm3
	movss	60(%rsp), %xmm6
	mulss	%xmm2, %xmm3
	mulss	%xmm1, %xmm0
	addss	%xmm3, %xmm0
	movaps	%xmm5, %xmm3
	mulss	%xmm5, %xmm3
	addss	%xmm3, %xmm0
	ucomiss	%xmm0, %xmm10
	ja	.L573
	sqrtss	%xmm0, %xmm0
.L552:
	movss	.LC18(%rip), %xmm3
	movaps	%xmm6, %xmm13
	movaps	%xmm3, %xmm4
	subss	%xmm9, %xmm3
	divss	%xmm0, %xmm4
	movaps	%xmm3, %xmm12
	movaps	%xmm3, %xmm11
	mulss	%xmm4, %xmm1
	mulss	%xmm4, %xmm2
	mulss	%xmm4, %xmm5
	movaps	%xmm6, %xmm4
	mulss	%xmm1, %xmm12
	mulss	%xmm2, %xmm3
	mulss	%xmm5, %xmm11
	movaps	%xmm5, %xmm0
	mulss	%xmm5, %xmm4
	mulss	%xmm1, %xmm13
	mulss	%xmm2, %xmm6
	movaps	%xmm3, %xmm8
	movaps	%xmm3, %xmm7
	mulss	%xmm5, %xmm3
	movaps	%xmm12, %xmm5
	mulss	%xmm1, %xmm7
	mulss	%xmm2, %xmm5
	mulss	%xmm2, %xmm8
	mulss	%xmm11, %xmm2
	subss	%xmm13, %xmm3
	addss	%xmm4, %xmm7
	subss	%xmm4, %xmm5
	movaps	%xmm12, %xmm4
	mulss	%xmm1, %xmm4
	addss	%xmm9, %xmm8
	movaps	%xmm3, %xmm15
	mulss	%xmm0, %xmm12
	addss	%xmm13, %xmm2
	mulss	%xmm11, %xmm1
	mulss	%xmm0, %xmm11
	movaps	%xmm8, %xmm14
	mulss	%xmm10, %xmm14
	addss	%xmm9, %xmm4
	mulss	%xmm10, %xmm15
	addss	%xmm6, %xmm12
	subss	%xmm6, %xmm1
	movaps	%xmm7, %xmm6
	mulss	%xmm10, %xmm6
	movaps	%xmm4, %xmm13
	movaps	%xmm11, %xmm0
	mulss	%xmm10, %xmm13
	addss	%xmm9, %xmm0
	movss	%xmm14, 24(%rsp)
	movaps	%xmm12, %xmm14
	mulss	%xmm10, %xmm14
	movaps	%xmm5, %xmm11
	movaps	%xmm1, %xmm9
	mulss	%xmm10, %xmm11
	mulss	%xmm10, %xmm9
	movss	%xmm0, 16(%rsp)
	addss	%xmm6, %xmm8
	movss	%xmm13, 12(%rsp)
	movaps	%xmm0, %xmm13
	addss	12(%rsp), %xmm5
	mulss	%xmm10, %xmm13
	mulss	%xmm2, %xmm10
	addss	%xmm15, %xmm8
	movss	%xmm11, 28(%rsp)
	movss	88(%rbx), %xmm11
	addss	%xmm14, %xmm5
	addss	%xmm9, %xmm2
	mulss	%xmm11, %xmm8
	addss	%xmm13, %xmm2
	mulss	96(%rbx), %xmm2
	movaps	%xmm10, %xmm0
	movss	92(%rbx), %xmm10
	addss	%xmm0, %xmm1
	addss	%xmm0, %xmm9
	mulss	%xmm10, %xmm5
	addss	16(%rsp), %xmm9
	mulss	96(%rbx), %xmm9
	addss	%xmm13, %xmm1
	mulss	96(%rbx), %xmm1
	addss	%xmm8, %xmm5
	addss	%xmm2, %xmm5
	movss	28(%rsp), %xmm2
	addss	%xmm2, %xmm4
	movss	%xmm5, 88(%rbx)
	movss	24(%rsp), %xmm5
	addss	%xmm5, %xmm7
	addss	%xmm14, %xmm4
	addss	%xmm5, %xmm6
	addss	%xmm15, %xmm7
	mulss	%xmm10, %xmm4
	addss	%xmm3, %xmm6
	mulss	%xmm11, %xmm7
	mulss	%xmm11, %xmm6
	addss	%xmm7, %xmm4
	addss	%xmm1, %xmm4
	movss	12(%rsp), %xmm1
	addss	%xmm2, %xmm1
	movss	%xmm4, 92(%rbx)
	addss	%xmm12, %xmm1
	mulss	%xmm10, %xmm1
	addss	%xmm1, %xmm6
	addss	%xmm9, %xmm6
	movss	%xmm6, 96(%rbx)
	jmp	.L549
	.p2align 4,,10
	.p2align 3
.L579:
	movss	88(%rbx), %xmm11
	movss	100(%rbx), %xmm1
	pxor	%xmm10, %xmm10
	movss	104(%rbx), %xmm3
	movss	92(%rbx), %xmm15
	movaps	%xmm1, %xmm2
	movaps	%xmm11, %xmm4
	movss	96(%rbx), %xmm14
	movaps	%xmm11, %xmm0
	mulss	%xmm3, %xmm4
	mulss	%xmm15, %xmm2
	mulss	%xmm14, %xmm3
	mulss	%xmm14, %xmm1
	subss	%xmm2, %xmm4
	movss	108(%rbx), %xmm2
	mulss	%xmm2, %xmm0
	mulss	%xmm15, %xmm2
	subss	%xmm0, %xmm1
	subss	%xmm3, %xmm2
	movaps	%xmm1, %xmm3
	mulss	%xmm1, %xmm3
	movaps	%xmm2, %xmm0
	mulss	%xmm2, %xmm0
	addss	%xmm0, %xmm3
	movaps	%xmm4, %xmm0
	mulss	%xmm4, %xmm0
	addss	%xmm3, %xmm0
	ucomiss	%xmm0, %xmm10
	ja	.L571
	sqrtss	%xmm0, %xmm0
.L545:
	movss	.LC18(%rip), %xmm3
	leaq	60(%rsp), %rdi
	leaq	56(%rsp), %rsi
	movss	%xmm10, 44(%rsp)
	movss	%xmm14, 40(%rsp)
	movaps	%xmm3, %xmm5
	movss	%xmm15, 36(%rsp)
	divss	%xmm0, %xmm5
	movss	16(%r12), %xmm0
	xorps	.LC25(%rip), %xmm0
	movss	%xmm11, 32(%rsp)
	mulss	.LC31(%rip), %xmm0
	movss	%xmm3, 28(%rsp)
	mulss	%xmm5, %xmm4
	mulss	%xmm5, %xmm1
	mulss	%xmm5, %xmm2
	movss	%xmm4, 24(%rsp)
	movss	%xmm1, 16(%rsp)
	movss	%xmm2, 12(%rsp)
	call	sincosf@PLT
	movss	16(%rsp), %xmm1
	movss	12(%rsp), %xmm2
	movss	24(%rsp), %xmm4
	movss	44(%rsp), %xmm10
	movaps	%xmm1, %xmm0
	movaps	%xmm2, %xmm5
	movss	56(%rsp), %xmm9
	movss	60(%rsp), %xmm7
	mulss	%xmm2, %xmm5
	movss	28(%rsp), %xmm3
	movss	32(%rsp), %xmm11
	mulss	%xmm1, %xmm0
	movss	36(%rsp), %xmm15
	movss	40(%rsp), %xmm14
	addss	%xmm5, %xmm0
	movaps	%xmm4, %xmm5
	mulss	%xmm4, %xmm5
	addss	%xmm5, %xmm0
	ucomiss	%xmm0, %xmm10
	ja	.L572
	sqrtss	%xmm0, %xmm0
.L548:
	movaps	%xmm3, %xmm5
	subss	%xmm9, %xmm3
	movaps	%xmm7, %xmm12
	divss	%xmm0, %xmm5
	movaps	%xmm7, %xmm13
	movaps	%xmm3, %xmm8
	mulss	%xmm5, %xmm2
	mulss	%xmm5, %xmm4
	mulss	%xmm5, %xmm1
	mulss	%xmm2, %xmm7
	mulss	%xmm4, %xmm8
	movaps	%xmm4, %xmm0
	movaps	%xmm3, %xmm4
	mulss	%xmm2, %xmm3
	mulss	%xmm1, %xmm12
	mulss	%xmm1, %xmm4
	mulss	%xmm0, %xmm13
	movaps	%xmm3, %xmm6
	movaps	%xmm3, %xmm5
	mulss	%xmm0, %xmm3
	mulss	%xmm1, %xmm5
	mulss	%xmm2, %xmm6
	subss	%xmm12, %xmm3
	addss	%xmm13, %xmm5
	addss	%xmm9, %xmm6
	movss	%xmm3, 12(%rsp)
	movaps	%xmm4, %xmm3
	mulss	%xmm2, %xmm3
	mulss	%xmm8, %xmm2
	subss	%xmm13, %xmm3
	movaps	%xmm4, %xmm13
	mulss	%xmm0, %xmm4
	addss	%xmm12, %xmm2
	movaps	%xmm6, %xmm12
	mulss	%xmm1, %xmm13
	mulss	%xmm8, %xmm1
	mulss	%xmm0, %xmm8
	movss	12(%rsp), %xmm0
	mulss	%xmm10, %xmm12
	addss	%xmm7, %xmm4
	mulss	%xmm10, %xmm0
	addss	%xmm9, %xmm13
	subss	%xmm7, %xmm1
	movss	%xmm4, 16(%rsp)
	movss	16(%rsp), %xmm7
	addss	%xmm9, %xmm8
	movaps	%xmm5, %xmm4
	mulss	%xmm10, %xmm4
	movaps	%xmm13, %xmm9
	movss	%xmm12, 32(%rsp)
	movaps	%xmm3, %xmm12
	mulss	%xmm10, %xmm7
	mulss	%xmm10, %xmm9
	mulss	%xmm10, %xmm12
	addss	%xmm4, %xmm6
	movss	%xmm7, 24(%rsp)
	movaps	%xmm8, %xmm7
	mulss	%xmm10, %xmm7
	addss	%xmm9, %xmm3
	addss	24(%rsp), %xmm3
	addss	%xmm0, %xmm6
	addss	%xmm12, %xmm13
	addss	%xmm12, %xmm9
	addss	16(%rsp), %xmm9
	mulss	%xmm15, %xmm3
	mulss	%xmm11, %xmm6
	movss	%xmm7, 28(%rsp)
	mulss	%xmm15, %xmm9
	movaps	%xmm1, %xmm7
	mulss	%xmm10, %xmm7
	mulss	%xmm2, %xmm10
	addss	%xmm6, %xmm3
	addss	%xmm7, %xmm2
	addss	28(%rsp), %xmm2
	addss	%xmm10, %xmm7
	addss	%xmm10, %xmm1
	addss	28(%rsp), %xmm1
	mulss	%xmm14, %xmm2
	addss	%xmm8, %xmm7
	mulss	%xmm14, %xmm1
	mulss	%xmm14, %xmm7
	addss	%xmm2, %xmm3
	movss	32(%rsp), %xmm2
	addss	%xmm2, %xmm5
	addss	%xmm2, %xmm4
	addss	12(%rsp), %xmm4
	movss	%xmm3, 88(%rbx)
	addss	%xmm0, %xmm5
	movss	24(%rsp), %xmm0
	mulss	%xmm11, %xmm4
	addss	%xmm13, %xmm0
	mulss	%xmm11, %xmm5
	mulss	%xmm15, %xmm0
	addss	%xmm9, %xmm4
	addss	%xmm7, %xmm4
	addss	%xmm5, %xmm0
	movss	%xmm4, 96(%rbx)
	addss	%xmm1, %xmm0
	movss	%xmm0, 92(%rbx)
	jmp	.L542
	.p2align 4,,10
	.p2align 3
.L578:
	movss	88(%rbx), %xmm11
	movss	100(%rbx), %xmm1
	pxor	%xmm10, %xmm10
	movss	104(%rbx), %xmm3
	movss	92(%rbx), %xmm15
	movaps	%xmm1, %xmm2
	movaps	%xmm11, %xmm4
	movss	96(%rbx), %xmm14
	movaps	%xmm11, %xmm0
	mulss	%xmm3, %xmm4
	mulss	%xmm15, %xmm2
	mulss	%xmm14, %xmm3
	mulss	%xmm14, %xmm1
	subss	%xmm2, %xmm4
	movss	108(%rbx), %xmm2
	mulss	%xmm2, %xmm0
	mulss	%xmm15, %xmm2
	subss	%xmm0, %xmm1
	subss	%xmm3, %xmm2
	movaps	%xmm1, %xmm3
	mulss	%xmm1, %xmm3
	movaps	%xmm2, %xmm0
	mulss	%xmm2, %xmm0
	addss	%xmm0, %xmm3
	movaps	%xmm4, %xmm0
	mulss	%xmm4, %xmm0
	addss	%xmm3, %xmm0
	ucomiss	%xmm0, %xmm10
	ja	.L569
	sqrtss	%xmm0, %xmm0
.L538:
	movss	.LC18(%rip), %xmm3
	leaq	60(%rsp), %rdi
	leaq	56(%rsp), %rsi
	movss	%xmm10, 44(%rsp)
	movss	%xmm14, 40(%rsp)
	movaps	%xmm3, %xmm5
	movss	%xmm15, 36(%rsp)
	divss	%xmm0, %xmm5
	movss	.LC31(%rip), %xmm0
	movss	%xmm11, 32(%rsp)
	mulss	16(%r12), %xmm0
	movss	%xmm3, 28(%rsp)
	mulss	%xmm5, %xmm4
	mulss	%xmm5, %xmm1
	mulss	%xmm5, %xmm2
	movss	%xmm4, 24(%rsp)
	movss	%xmm1, 16(%rsp)
	movss	%xmm2, 12(%rsp)
	call	sincosf@PLT
	movss	16(%rsp), %xmm1
	movss	12(%rsp), %xmm2
	movss	24(%rsp), %xmm4
	movss	44(%rsp), %xmm10
	movaps	%xmm1, %xmm0
	movaps	%xmm2, %xmm5
	movss	56(%rsp), %xmm9
	movss	60(%rsp), %xmm7
	mulss	%xmm2, %xmm5
	movss	28(%rsp), %xmm3
	movss	32(%rsp), %xmm11
	mulss	%xmm1, %xmm0
	movss	36(%rsp), %xmm15
	movss	40(%rsp), %xmm14
	addss	%xmm5, %xmm0
	movaps	%xmm4, %xmm5
	mulss	%xmm4, %xmm5
	addss	%xmm5, %xmm0
	ucomiss	%xmm0, %xmm10
	ja	.L570
	sqrtss	%xmm0, %xmm0
.L541:
	movaps	%xmm3, %xmm5
	subss	%xmm9, %xmm3
	movaps	%xmm7, %xmm12
	divss	%xmm0, %xmm5
	movaps	%xmm7, %xmm13
	movaps	%xmm3, %xmm8
	mulss	%xmm5, %xmm2
	mulss	%xmm5, %xmm4
	mulss	%xmm5, %xmm1
	mulss	%xmm2, %xmm7
	mulss	%xmm4, %xmm8
	movaps	%xmm4, %xmm0
	movaps	%xmm3, %xmm4
	mulss	%xmm2, %xmm3
	mulss	%xmm1, %xmm12
	mulss	%xmm1, %xmm4
	mulss	%xmm0, %xmm13
	movaps	%xmm3, %xmm6
	movaps	%xmm3, %xmm5
	mulss	%xmm0, %xmm3
	mulss	%xmm1, %xmm5
	mulss	%xmm2, %xmm6
	subss	%xmm12, %xmm3
	addss	%xmm13, %xmm5
	addss	%xmm9, %xmm6
	movss	%xmm3, 12(%rsp)
	movaps	%xmm4, %xmm3
	mulss	%xmm2, %xmm3
	mulss	%xmm8, %xmm2
	subss	%xmm13, %xmm3
	movaps	%xmm4, %xmm13
	mulss	%xmm0, %xmm4
	addss	%xmm12, %xmm2
	movaps	%xmm6, %xmm12
	mulss	%xmm1, %xmm13
	mulss	%xmm8, %xmm1
	mulss	%xmm0, %xmm8
	movss	12(%rsp), %xmm0
	mulss	%xmm10, %xmm12
	addss	%xmm7, %xmm4
	mulss	%xmm10, %xmm0
	addss	%xmm9, %xmm13
	subss	%xmm7, %xmm1
	movss	%xmm4, 16(%rsp)
	movss	16(%rsp), %xmm7
	addss	%xmm9, %xmm8
	movaps	%xmm5, %xmm4
	mulss	%xmm10, %xmm4
	movaps	%xmm13, %xmm9
	movss	%xmm12, 32(%rsp)
	movaps	%xmm3, %xmm12
	mulss	%xmm10, %xmm7
	mulss	%xmm10, %xmm9
	mulss	%xmm10, %xmm12
	addss	%xmm4, %xmm6
	movss	%xmm7, 24(%rsp)
	movaps	%xmm8, %xmm7
	mulss	%xmm10, %xmm7
	addss	%xmm9, %xmm3
	addss	24(%rsp), %xmm3
	addss	%xmm0, %xmm6
	addss	%xmm12, %xmm13
	addss	%xmm12, %xmm9
	addss	16(%rsp), %xmm9
	mulss	%xmm15, %xmm3
	mulss	%xmm11, %xmm6
	movss	%xmm7, 28(%rsp)
	mulss	%xmm15, %xmm9
	movaps	%xmm1, %xmm7
	mulss	%xmm10, %xmm7
	mulss	%xmm2, %xmm10
	addss	%xmm6, %xmm3
	addss	%xmm7, %xmm2
	addss	28(%rsp), %xmm2
	addss	%xmm10, %xmm7
	addss	%xmm10, %xmm1
	addss	28(%rsp), %xmm1
	mulss	%xmm14, %xmm2
	addss	%xmm8, %xmm7
	mulss	%xmm14, %xmm1
	mulss	%xmm14, %xmm7
	addss	%xmm2, %xmm3
	movss	32(%rsp), %xmm2
	addss	%xmm2, %xmm5
	addss	%xmm2, %xmm4
	addss	12(%rsp), %xmm4
	movss	%xmm3, 88(%rbx)
	addss	%xmm0, %xmm5
	movss	24(%rsp), %xmm0
	mulss	%xmm11, %xmm4
	addss	%xmm13, %xmm0
	mulss	%xmm11, %xmm5
	mulss	%xmm15, %xmm0
	addss	%xmm9, %xmm4
	addss	%xmm7, %xmm4
	addss	%xmm5, %xmm0
	movss	%xmm4, 96(%rbx)
	addss	%xmm1, %xmm0
	movss	%xmm0, 92(%rbx)
	jmp	.L535
	.p2align 4,,10
	.p2align 3
.L577:
	movss	88(%rbx), %xmm5
	movss	100(%rbx), %xmm6
	movss	104(%rbx), %xmm3
	movss	92(%rbx), %xmm4
	movaps	%xmm5, %xmm2
	movaps	%xmm6, %xmm1
	movss	96(%rbx), %xmm0
	mulss	%xmm4, %xmm1
	unpcklps	%xmm6, %xmm4
	mulss	%xmm3, %xmm2
	unpcklps	%xmm5, %xmm3
	subss	%xmm1, %xmm2
	movss	108(%rbx), %xmm1
	unpcklps	%xmm0, %xmm1
	movq	104(%rbx), %xmm0
	mulps	%xmm4, %xmm1
	movq	96(%rbx), %xmm4
	movss	%xmm4, %xmm0
	mulps	%xmm3, %xmm0
	subps	%xmm0, %xmm1
	movaps	%xmm1, %xmm7
	movaps	%xmm1, %xmm3
	shufps	$0xe5, %xmm7, %xmm7
	mulss	%xmm1, %xmm3
	movaps	%xmm7, %xmm0
	mulss	%xmm7, %xmm0
	addss	%xmm3, %xmm0
	movaps	%xmm2, %xmm3
	mulss	%xmm2, %xmm3
	addss	%xmm3, %xmm0
	pxor	%xmm3, %xmm3
	ucomiss	%xmm0, %xmm3
	ja	.L568
	sqrtss	%xmm0, %xmm0
.L532:
	movss	.LC18(%rip), %xmm3
	movss	4(%r12), %xmm4
	divss	%xmm0, %xmm3
	mulss	%xmm3, %xmm2
	movaps	%xmm3, %xmm0
	shufps	$0xe0, %xmm0, %xmm0
	mulps	%xmm1, %xmm0
	movaps	%xmm4, %xmm1
	shufps	$0xe0, %xmm1, %xmm1
	mulps	%xmm1, %xmm0
	movq	112(%rbx), %xmm1
	addps	%xmm0, %xmm1
	movaps	%xmm2, %xmm0
	mulss	%xmm4, %xmm0
	addss	120(%rbx), %xmm0
	movlps	%xmm1, 112(%rbx)
	movss	%xmm0, 120(%rbx)
	jmp	.L529
	.p2align 4,,10
	.p2align 3
.L576:
	movss	88(%rbx), %xmm5
	movss	100(%rbx), %xmm6
	movss	104(%rbx), %xmm3
	movss	92(%rbx), %xmm4
	movaps	%xmm5, %xmm2
	movaps	%xmm6, %xmm1
	movss	96(%rbx), %xmm0
	mulss	%xmm4, %xmm1
	unpcklps	%xmm6, %xmm4
	mulss	%xmm3, %xmm2
	unpcklps	%xmm5, %xmm3
	subss	%xmm1, %xmm2
	movss	108(%rbx), %xmm1
	unpcklps	%xmm0, %xmm1
	movq	104(%rbx), %xmm0
	mulps	%xmm4, %xmm1
	movq	96(%rbx), %xmm4
	movss	%xmm4, %xmm0
	mulps	%xmm3, %xmm0
	subps	%xmm0, %xmm1
	movaps	%xmm1, %xmm7
	movaps	%xmm1, %xmm3
	shufps	$0xe5, %xmm7, %xmm7
	mulss	%xmm1, %xmm3
	movaps	%xmm7, %xmm0
	mulss	%xmm7, %xmm0
	addss	%xmm3, %xmm0
	movaps	%xmm2, %xmm3
	mulss	%xmm2, %xmm3
	addss	%xmm3, %xmm0
	pxor	%xmm3, %xmm3
	ucomiss	%xmm0, %xmm3
	ja	.L567
	sqrtss	%xmm0, %xmm0
.L527:
	movss	.LC18(%rip), %xmm3
	movss	4(%r12), %xmm4
	divss	%xmm0, %xmm3
	mulss	%xmm3, %xmm2
	movaps	%xmm3, %xmm0
	shufps	$0xe0, %xmm0, %xmm0
	mulps	%xmm1, %xmm0
	movaps	%xmm4, %xmm1
	shufps	$0xe0, %xmm1, %xmm1
	mulps	%xmm1, %xmm0
	movq	112(%rbx), %xmm1
	subps	%xmm0, %xmm1
	movaps	%xmm2, %xmm0
	xorps	.LC25(%rip), %xmm0
	mulss	%xmm4, %xmm0
	addss	120(%rbx), %xmm0
	movlps	%xmm1, 112(%rbx)
	movss	%xmm0, 120(%rbx)
	jmp	.L524
.L574:
	movss	%xmm10, 36(%rsp)
	movss	%xmm6, 32(%rsp)
	movss	%xmm9, 28(%rsp)
	movss	%xmm5, 24(%rsp)
	movss	%xmm1, 16(%rsp)
	movss	%xmm2, 12(%rsp)
	call	sqrtf@PLT
	movss	36(%rsp), %xmm10
	movss	32(%rsp), %xmm6
	movss	28(%rsp), %xmm9
	movss	24(%rsp), %xmm5
	movss	16(%rsp), %xmm1
	movss	12(%rsp), %xmm2
	jmp	.L556
.L573:
	movss	%xmm10, 36(%rsp)
	movss	%xmm5, 32(%rsp)
	movss	%xmm1, 28(%rsp)
	movss	%xmm2, 24(%rsp)
	movss	%xmm6, 16(%rsp)
	movss	%xmm9, 12(%rsp)
	call	sqrtf@PLT
	movss	36(%rsp), %xmm10
	movss	32(%rsp), %xmm5
	movss	28(%rsp), %xmm1
	movss	24(%rsp), %xmm2
	movss	16(%rsp), %xmm6
	movss	12(%rsp), %xmm9
	jmp	.L552
.L571:
	movss	%xmm10, 40(%rsp)
	movss	%xmm2, 36(%rsp)
	movss	%xmm1, 32(%rsp)
	movss	%xmm14, 28(%rsp)
	movss	%xmm4, 24(%rsp)
	movss	%xmm15, 16(%rsp)
	movss	%xmm11, 12(%rsp)
	call	sqrtf@PLT
	movss	40(%rsp), %xmm10
	movss	36(%rsp), %xmm2
	movss	32(%rsp), %xmm1
	movss	28(%rsp), %xmm14
	movss	24(%rsp), %xmm4
	movss	16(%rsp), %xmm15
	movss	12(%rsp), %xmm11
	jmp	.L545
.L572:
	movss	%xmm3, 52(%rsp)
	movss	%xmm10, 48(%rsp)
	movss	%xmm7, 44(%rsp)
	movss	%xmm9, 40(%rsp)
	movss	%xmm2, 36(%rsp)
	movss	%xmm1, 32(%rsp)
	movss	%xmm4, 28(%rsp)
	movss	%xmm14, 24(%rsp)
	movss	%xmm15, 16(%rsp)
	movss	%xmm11, 12(%rsp)
	call	sqrtf@PLT
	movss	52(%rsp), %xmm3
	movss	48(%rsp), %xmm10
	movss	44(%rsp), %xmm7
	movss	40(%rsp), %xmm9
	movss	36(%rsp), %xmm2
	movss	32(%rsp), %xmm1
	movss	28(%rsp), %xmm4
	movss	24(%rsp), %xmm14
	movss	16(%rsp), %xmm15
	movss	12(%rsp), %xmm11
	jmp	.L548
.L569:
	movss	%xmm10, 40(%rsp)
	movss	%xmm2, 36(%rsp)
	movss	%xmm1, 32(%rsp)
	movss	%xmm14, 28(%rsp)
	movss	%xmm4, 24(%rsp)
	movss	%xmm15, 16(%rsp)
	movss	%xmm11, 12(%rsp)
	call	sqrtf@PLT
	movss	40(%rsp), %xmm10
	movss	36(%rsp), %xmm2
	movss	32(%rsp), %xmm1
	movss	28(%rsp), %xmm14
	movss	24(%rsp), %xmm4
	movss	16(%rsp), %xmm15
	movss	12(%rsp), %xmm11
	jmp	.L538
.L570:
	movss	%xmm3, 52(%rsp)
	movss	%xmm10, 48(%rsp)
	movss	%xmm7, 44(%rsp)
	movss	%xmm9, 40(%rsp)
	movss	%xmm2, 36(%rsp)
	movss	%xmm1, 32(%rsp)
	movss	%xmm4, 28(%rsp)
	movss	%xmm14, 24(%rsp)
	movss	%xmm15, 16(%rsp)
	movss	%xmm11, 12(%rsp)
	call	sqrtf@PLT
	movss	52(%rsp), %xmm3
	movss	48(%rsp), %xmm10
	movss	44(%rsp), %xmm7
	movss	40(%rsp), %xmm9
	movss	36(%rsp), %xmm2
	movss	32(%rsp), %xmm1
	movss	28(%rsp), %xmm4
	movss	24(%rsp), %xmm14
	movss	16(%rsp), %xmm15
	movss	12(%rsp), %xmm11
	jmp	.L541
.L568:
	movlps	%xmm1, 16(%rsp)
	movss	%xmm2, 12(%rsp)
	call	sqrtf@PLT
	movq	16(%rsp), %xmm1
	movss	12(%rsp), %xmm2
	jmp	.L532
.L567:
	movlps	%xmm1, 16(%rsp)
	movss	%xmm2, 12(%rsp)
	call	sqrtf@PLT
	movq	16(%rsp), %xmm1
	movss	12(%rsp), %xmm2
	jmp	.L527
	.cfi_endproc
.LFE4471:
	.size	_ZN8Keyboard3useEP6WindowP6Camera, .-_ZN8Keyboard3useEP6WindowP6Camera
	.section	.rodata.str1.8
	.align 8
.LC33:
	.string	"Draw mode %d is invalid. Using STATIC_DRAW as default"
	.align 8
.LC34:
	.string	"src/imp/engine/visual/renderer/mesh.cpp"
	.text
	.p2align 4
	.globl	_Z11getDrawModei
	.type	_Z11getDrawModei, @function
_Z11getDrawModei:
.LFB4474:
	.cfi_startproc
	movl	$35044, %eax
	testl	%edi, %edi
	je	.L589
	movl	$35048, %eax
	cmpl	$1, %edi
	jne	.L592
.L589:
	ret
	.p2align 4,,10
	.p2align 3
.L592:
	subq	$8, %rsp
	.cfi_def_cfa_offset 16
	movl	%edi, %r9d
	xorl	%eax, %eax
	movl	$9, %edx
	leaq	.LC33(%rip), %r8
	leaq	.LC3(%rip), %rcx
	movl	$1, %edi
	leaq	.LC34(%rip), %rsi
	call	_ZN6logger3logEiPKciS1_S1_z
	movl	$35044, %eax
	addq	$8, %rsp
	.cfi_def_cfa_offset 8
	ret
	.cfi_endproc
.LFE4474:
	.size	_Z11getDrawModei, .-_Z11getDrawModei
	.section	.rodata.str1.8
	.align 8
.LC35:
	.string	"the amount that you want to put inside the vertex buffer is too big. amount = %d, data size = %d, vertices size = %d"
	.text
	.align 2
	.p2align 4
	.globl	_ZN4Mesh14changeVerticesEjjSt6vectorIfSaIfEE
	.type	_ZN4Mesh14changeVerticesEjjSt6vectorIfSaIfEE, @function
_ZN4Mesh14changeVerticesEjjSt6vectorIfSaIfEE:
.LFB4481:
	.cfi_startproc
	pushq	%rbp
	.cfi_def_cfa_offset 16
	.cfi_offset 6, -16
	movl	%edx, %r8d
	movq	%r8, %r9
	movq	%rsp, %rbp
	.cfi_def_cfa_register 6
	pushq	%rbx
	subq	$24, %rsp
	.cfi_offset 3, -24
	movq	(%rcx), %rdx
	movq	%fs:40, %rax
	movq	%rax, -24(%rbp)
	xorl	%eax, %eax
	movq	8(%rcx), %rax
	movq	%rsp, %rbx
	movl	64(%rdi), %ecx
	subq	%rdx, %rax
	sarq	$2, %rax
	cmpq	%rax, %r8
	ja	.L594
	movl	%ecx, %r10d
	cmpq	%rax, %r10
	jb	.L594
	leaq	15(,%r8,4), %rax
	shrq	$4, %rax
	salq	$4, %rax
	subq	%rax, %rsp
	movq	%rsp, %rcx
	testl	%r8d, %r8d
	je	.L601
	leaq	4(%rdx), %r10
	movq	%rcx, %rax
	subq	%r10, %rax
	cmpq	$8, %rax
	jbe	.L598
	leal	-1(%r8), %eax
	cmpl	$2, %eax
	jbe	.L598
	shrl	$2, %r8d
	xorl	%eax, %eax
	salq	$4, %r8
	.p2align 4,,10
	.p2align 3
.L599:
	movups	(%rdx,%rax), %xmm1
	movups	%xmm1, (%rcx,%rax)
	addq	$16, %rax
	cmpq	%r8, %rax
	jne	.L599
	movl	%r9d, %eax
	andl	$-4, %eax
	testb	$3, %r9b
	je	.L601
	movl	%eax, %r8d
	movss	(%rdx,%r8,4), %xmm0
	movss	%xmm0, (%rcx,%r8,4)
	leal	1(%rax), %r8d
	cmpl	%r8d, %r9d
	jbe	.L601
	movss	(%rdx,%r8,4), %xmm0
	addl	$2, %eax
	movss	%xmm0, (%rcx,%r8,4)
	cmpl	%eax, %r9d
	jbe	.L601
	movss	(%rdx,%rax,4), %xmm0
	movss	%xmm0, (%rcx,%rax,4)
.L601:
	movq	56(%rdi), %rdi
	leal	0(,%r9,4), %edx
	sall	$2, %esi
	call	_ZN12VertexBuffer11change_dataEjjPf
	movq	%rbx, %rsp
.L593:
	movq	-24(%rbp), %rax
	subq	%fs:40, %rax
	jne	.L615
	movq	-8(%rbp), %rbx
	leave
	.cfi_remember_state
	.cfi_def_cfa 7, 8
	ret
	.p2align 4,,10
	.p2align 3
.L594:
	.cfi_restore_state
	pushq	%rcx
	leaq	.LC35(%rip), %r8
	leaq	.LC3(%rip), %rcx
	movl	$40, %edx
	pushq	%rax
	leaq	.LC34(%rip), %rsi
	movl	$2, %edi
	xorl	%eax, %eax
	call	_ZN6logger3logEiPKciS1_S1_z.constprop.0
	movq	%rbx, %rsp
	jmp	.L593
	.p2align 4,,10
	.p2align 3
.L598:
	xorl	%eax, %eax
	.p2align 4,,10
	.p2align 3
.L603:
	movss	(%rdx,%rax,4), %xmm0
	movss	%xmm0, (%rcx,%rax,4)
	addq	$1, %rax
	cmpq	%r8, %rax
	jne	.L603
	jmp	.L601
.L615:
	call	__stack_chk_fail@PLT
	.cfi_endproc
.LFE4481:
	.size	_ZN4Mesh14changeVerticesEjjSt6vectorIfSaIfEE, .-_ZN4Mesh14changeVerticesEjjSt6vectorIfSaIfEE
	.align 2
	.p2align 4
	.globl	_ZN4Mesh4drawEv
	.type	_ZN4Mesh4drawEv, @function
_ZN4Mesh4drawEv:
.LFB4482:
	.cfi_startproc
	pushq	%r12
	.cfi_def_cfa_offset 16
	.cfi_offset 12, -16
	pushq	%rbp
	.cfi_def_cfa_offset 24
	.cfi_offset 6, -24
	pushq	%rbx
	.cfi_def_cfa_offset 32
	.cfi_offset 3, -32
	movq	%rdi, %rbx
	call	_ZN11ArrayBuffer4BindEv
	.p2align 4,,10
	.p2align 3
.L617:
	call	glGetError@PLT
	testl	%eax, %eax
	jne	.L617
	movl	68(%rbx), %esi
	xorl	%ecx, %ecx
	movl	$5125, %edx
	movl	$4, %edi
	leaq	.LC3(%rip), %r12
	leaq	.LC13(%rip), %rbp
	call	glDrawElements@PLT
	jmp	.L619
	.p2align 4,,10
	.p2align 3
.L641:
	leaq	.LC12(%rip), %r8
	movq	%r12, %rcx
	movq	%rbp, %rsi
	xorl	%eax, %eax
	movl	$12, %edx
	movl	$2, %edi
	call	_ZN6logger3logEiPKciS1_S1_z.constprop.0
.L619:
	call	glGetError@PLT
	movl	%eax, %r9d
	testl	%eax, %eax
	jne	.L641
	.p2align 4,,10
	.p2align 3
.L618:
	call	glGetError@PLT
	testl	%eax, %eax
	jne	.L618
	xorl	%edi, %edi
	leaq	.LC3(%rip), %r12
	leaq	.LC13(%rip), %rbp
	call	*__glewBindVertexArray(%rip)
	jmp	.L621
	.p2align 4,,10
	.p2align 3
.L642:
	leaq	.LC12(%rip), %r8
	movq	%r12, %rcx
	movq	%rbp, %rsi
	xorl	%eax, %eax
	movl	$12, %edx
	movl	$2, %edi
	call	_ZN6logger3logEiPKciS1_S1_z.constprop.0
.L621:
	call	glGetError@PLT
	movl	%eax, %r9d
	testl	%eax, %eax
	jne	.L642
	cmpq	$0, 8(%rbx)
	je	.L622
	.p2align 4,,10
	.p2align 3
.L623:
	call	glGetError@PLT
	testl	%eax, %eax
	jne	.L623
	xorl	%esi, %esi
	movl	$34962, %edi
	leaq	.LC3(%rip), %r12
	call	*__glewBindBuffer(%rip)
	leaq	.LC13(%rip), %rbp
	jmp	.L624
	.p2align 4,,10
	.p2align 3
.L643:
	leaq	.LC12(%rip), %r8
	movq	%r12, %rcx
	movq	%rbp, %rsi
	xorl	%eax, %eax
	movl	$12, %edx
	movl	$2, %edi
	call	_ZN6logger3logEiPKciS1_S1_z.constprop.0
.L624:
	call	glGetError@PLT
	movl	%eax, %r9d
	testl	%eax, %eax
	jne	.L643
.L622:
	cmpq	$0, 16(%rbx)
	je	.L616
	.p2align 4,,10
	.p2align 3
.L626:
	call	glGetError@PLT
	testl	%eax, %eax
	jne	.L626
	xorl	%esi, %esi
	movl	$34963, %edi
	leaq	.LC3(%rip), %rbp
	call	*__glewBindBuffer(%rip)
	leaq	.LC13(%rip), %rbx
	jmp	.L627
	.p2align 4,,10
	.p2align 3
.L644:
	leaq	.LC12(%rip), %r8
	movq	%rbp, %rcx
	movq	%rbx, %rsi
	xorl	%eax, %eax
	movl	$12, %edx
	movl	$2, %edi
	call	_ZN6logger3logEiPKciS1_S1_z.constprop.0
.L627:
	call	glGetError@PLT
	movl	%eax, %r9d
	testl	%eax, %eax
	jne	.L644
.L616:
	popq	%rbx
	.cfi_def_cfa_offset 24
	popq	%rbp
	.cfi_def_cfa_offset 16
	popq	%r12
	.cfi_def_cfa_offset 8
	ret
	.cfi_endproc
.LFE4482:
	.size	_ZN4Mesh4drawEv, .-_ZN4Mesh4drawEv
	.section	.rodata.str1.1
.LC36:
	.string	"1.85 WIP"
	.section	.text.unlikely
	.align 2
.LCOLDB37:
	.text
.LHOTB37:
	.align 2
	.p2align 4
	.globl	_ZN5ImguiC2ERKNSt7__cxx1112basic_stringIcSt11char_traitsIcESaIcEEEP6Window
	.type	_ZN5ImguiC2ERKNSt7__cxx1112basic_stringIcSt11char_traitsIcESaIcEEEP6Window, @function
_ZN5ImguiC2ERKNSt7__cxx1112basic_stringIcSt11char_traitsIcESaIcEEEP6Window:
.LFB4705:
	.cfi_startproc
	.cfi_personality 0x9b,DW.ref.__gxx_personality_v0
	.cfi_lsda 0x1b,.LLSDA4705
	pushq	%rbp
	.cfi_def_cfa_offset 16
	.cfi_offset 6, -16
	movq	%rsp, %rbp
	.cfi_def_cfa_register 6
	pushq	%r15
	pushq	%r14
	.cfi_offset 15, -24
	.cfi_offset 14, -32
	movq	%rdx, %r14
	pushq	%r13
	.cfi_offset 13, -40
	movq	%rsi, %r13
	pushq	%r12
	pushq	%rbx
	.cfi_offset 12, -48
	.cfi_offset 3, -56
	movq	%rdi, %rbx
	subq	$40, %rsp
.LEHB4:
	call	_ZN7ImGuiIOC1Ev@PLT
.LEHE4:
	subq	$8, %rsp
	pxor	%xmm0, %xmm0
	movq	$0, 5480(%rbx)
	pushq	$2
	movl	$8, %ecx
	movl	$1048, %edx
	movl	$20, %r9d
	movups	%xmm0, 5464(%rbx)
	movl	$16, %r8d
	movl	$5464, %esi
	leaq	.LC36(%rip), %rdi
.LEHB5:
	.cfi_escape 0x2e,0x10
	call	_ZN5ImGui30DebugCheckVersionAndDataLayoutEPKcmmmmmm@PLT
	popq	%rax
	xorl	%edi, %edi
	popq	%rdx
	.cfi_escape 0x2e,0
	call	_ZN5ImGui13CreateContextEP11ImFontAtlas@PLT
	call	_ZN5ImGui5GetIOEv@PLT
	movq	%rax, %rsi
	movq	%rax, -56(%rbp)
	movq	(%rax), %rax
	movdqu	24(%rsi), %xmm4
	movq	%rax, (%rbx)
	movq	8(%rsi), %rax
	movaps	%xmm4, -80(%rbp)
	movq	%rax, 8(%rbx)
	movq	16(%rsi), %rax
	movups	%xmm4, 24(%rbx)
	movq	%rax, 16(%rbx)
	movq	40(%rsi), %rax
	movq	%rax, 40(%rbx)
	movq	%rbx, %rax
	movss	48(%rsi), %xmm0
	subq	%rsi, %rax
	subq	$4, %rax
	movss	%xmm0, 48(%rbx)
	cmpq	$8, %rax
	jbe	.L680
	movdqu	52(%rsi), %xmm7
	movups	%xmm7, 52(%rbx)
	movdqu	68(%rsi), %xmm6
	movups	%xmm6, 68(%rbx)
	movdqu	84(%rsi), %xmm5
	movups	%xmm5, 84(%rbx)
	movdqu	100(%rsi), %xmm7
	movups	%xmm7, 100(%rbx)
	movdqu	116(%rsi), %xmm2
	movups	%xmm2, 116(%rbx)
	movq	132(%rsi), %rax
	movaps	%xmm2, -80(%rbp)
	movq	%rax, 132(%rbx)
.L647:
	movq	-56(%rbp), %rsi
	movq	140(%rsi), %rax
	movq	%rax, 140(%rbx)
	movdqu	152(%rsi), %xmm6
	movups	%xmm6, 152(%rbx)
	movzbl	172(%rsi), %eax
	movss	168(%rsi), %xmm0
	movb	%al, 172(%rbx)
	movq	176(%rsi), %rax
	movss	%xmm0, 168(%rbx)
	movss	200(%rsi), %xmm0
	movq	%rax, 176(%rbx)
	movq	184(%rsi), %rax
	movq	%rax, 184(%rbx)
	movl	192(%rsi), %eax
	movl	%eax, 192(%rbx)
	movzbl	196(%rsi), %eax
	movb	%al, 196(%rbx)
	movzbl	197(%rsi), %eax
	movss	%xmm0, 200(%rbx)
	movb	%al, 197(%rbx)
	movdqu	208(%rsi), %xmm4
	movdqu	224(%rsi), %xmm0
	movups	%xmm4, 208(%rbx)
	movups	%xmm0, 224(%rbx)
	movq	240(%rsi), %rax
	movq	%rax, 240(%rbx)
	movdqu	248(%rsi), %xmm2
	movups	%xmm2, 248(%rbx)
	movq	264(%rsi), %rax
	movaps	%xmm2, -80(%rbp)
	movq	%rax, 264(%rbx)
	movq	272(%rsi), %rax
	movq	%rax, 272(%rbx)
	movq	280(%rsi), %rax
	movq	%rax, 280(%rbx)
	movq	288(%rsi), %rax
	movq	%rax, 288(%rbx)
	movzbl	296(%rsi), %eax
	movb	%al, 296(%rbx)
	movzbl	297(%rsi), %eax
	movb	%al, 297(%rbx)
	movzbl	298(%rsi), %eax
	movb	%al, 298(%rbx)
	movzbl	299(%rsi), %eax
	movb	%al, 299(%rbx)
	movzbl	300(%rsi), %eax
	movb	%al, 300(%rbx)
	movq	304(%rsi), %rax
	movq	%rax, 304(%rbx)
	movl	312(%rsi), %eax
	movl	%eax, 312(%rbx)
	movq	%rsi, %rax
	notq	%rax
	addq	%rbx, %rax
	cmpq	$14, %rax
	movl	$316, %eax
	jbe	.L648
	.p2align 4,,10
	.p2align 3
.L649:
	movq	-56(%rbp), %rdx
	movdqu	(%rdx,%rax), %xmm5
	movups	%xmm5, (%rbx,%rax)
	addq	$16, %rax
	movaps	%xmm5, -80(%rbp)
	cmpq	$828, %rax
	jne	.L649
.L650:
	movq	-56(%rbp), %rdx
	movq	%rbx, %rax
	subq	%rdx, %rax
	subq	$4, %rax
	cmpq	$8, %rax
	jbe	.L682
	movups	828(%rdx), %xmm4
	movups	%xmm4, 828(%rbx)
	movups	844(%rdx), %xmm2
	movups	%xmm2, 844(%rbx)
	movups	860(%rdx), %xmm4
	movups	%xmm4, 860(%rbx)
	movups	876(%rdx), %xmm6
	movups	%xmm6, 876(%rbx)
	movups	892(%rdx), %xmm1
	movaps	%xmm1, -80(%rbp)
	movups	%xmm1, 892(%rbx)
.L652:
	movq	-56(%rbp), %rdi
	leaq	1008(%rbx), %rdx
	movl	908(%rdi), %eax
	movdqu	920(%rdi), %xmm5
	movss	916(%rdi), %xmm0
	movdqu	968(%rdi), %xmm7
	movl	%eax, 908(%rbx)
	movzbl	912(%rdi), %eax
	movb	%al, 912(%rbx)
	movzbl	913(%rdi), %eax
	movb	%al, 913(%rbx)
	movzbl	914(%rdi), %eax
	movups	%xmm5, 920(%rbx)
	movb	%al, 914(%rbx)
	movl	936(%rdi), %eax
	movss	%xmm0, 916(%rbx)
	movl	%eax, 936(%rbx)
	movq	940(%rdi), %rax
	movq	%rax, 940(%rbx)
	movzbl	948(%rdi), %eax
	movb	%al, 948(%rbx)
	movq	952(%rdi), %rax
	movq	%rax, 952(%rbx)
	movq	960(%rdi), %rax
	movups	%xmm7, 968(%rbx)
	movdqu	984(%rdi), %xmm1
	movq	%rax, 960(%rbx)
	movups	%xmm1, 984(%rbx)
	movq	1000(%rdi), %rax
	movaps	%xmm1, -80(%rbp)
	movq	%rax, 1000(%rbx)
	leaq	1016(%rdi), %rax
	cmpq	%rax, %rdx
	je	.L653
	movupd	1008(%rdi), %xmm7
	movq	%rdi, %rcx
	movups	%xmm7, 1008(%rbx)
	movupd	1024(%rdi), %xmm5
	movups	%xmm5, 1024(%rbx)
	movsd	1040(%rdi), %xmm0
	movaps	%xmm5, -80(%rbp)
	movsd	%xmm0, 1040(%rbx)
.L654:
	movzbl	1048(%rcx), %eax
	movb	%al, 1048(%rbx)
	movzbl	1049(%rcx), %eax
	movb	%al, 1049(%rbx)
	movzbl	1050(%rcx), %eax
	movb	%al, 1050(%rbx)
	movzbl	1051(%rcx), %eax
	movb	%al, 1051(%rbx)
	movzbl	1052(%rcx), %eax
	movb	%al, 1052(%rbx)
	movzbl	1053(%rcx), %eax
	movb	%al, 1053(%rbx)
	movzbl	1054(%rcx), %eax
	movb	%al, 1054(%rbx)
	movzbl	1055(%rcx), %eax
	movb	%al, 1055(%rbx)
	movzbl	1056(%rcx), %eax
	movb	%al, 1056(%rbx)
	movzbl	1057(%rcx), %eax
	movb	%al, 1057(%rbx)
	movzbl	1058(%rcx), %eax
	movb	%al, 1058(%rbx)
	movzbl	1059(%rcx), %eax
	movb	%al, 1059(%rbx)
	movzbl	1060(%rcx), %eax
	movb	%al, 1060(%rbx)
	movzbl	1061(%rcx), %eax
	movb	%al, 1061(%rbx)
	movzbl	1062(%rcx), %eax
	movb	%al, 1062(%rbx)
	movzbl	1063(%rcx), %eax
	movb	%al, 1063(%rbx)
	movzbl	1064(%rcx), %eax
	movb	%al, 1064(%rbx)
	movzbl	1065(%rcx), %eax
	movb	%al, 1065(%rbx)
	movzbl	1066(%rcx), %eax
	movb	%al, 1066(%rbx)
	movzbl	1067(%rcx), %eax
	movb	%al, 1067(%rbx)
	movzbl	1068(%rcx), %eax
	movb	%al, 1068(%rbx)
	movzbl	1069(%rcx), %eax
	movb	%al, 1069(%rbx)
	movzbl	1070(%rcx), %eax
	movb	%al, 1070(%rbx)
	movzbl	1071(%rcx), %eax
	movb	%al, 1071(%rbx)
	movzbl	1072(%rcx), %eax
	movb	%al, 1072(%rbx)
	movzbl	1073(%rcx), %eax
	movb	%al, 1073(%rbx)
	movzbl	1074(%rcx), %eax
	movb	%al, 1074(%rbx)
	movzbl	1075(%rcx), %eax
	movb	%al, 1075(%rbx)
	movzbl	1076(%rcx), %eax
	movb	%al, 1076(%rbx)
	movzbl	1077(%rcx), %eax
	movb	%al, 1077(%rbx)
	movq	%rbx, %rax
	subq	%rcx, %rax
	subq	$4, %rax
	cmpq	$8, %rax
	jbe	.L655
	movups	1080(%rcx), %xmm7
	movq	%rbx, %rax
	subq	%rcx, %rax
	movups	%xmm7, 1080(%rbx)
	movss	1096(%rcx), %xmm0
	subq	$4, %rax
	movaps	%xmm7, -80(%rbp)
	movss	%xmm0, 1096(%rbx)
	cmpq	$8, %rax
	jbe	.L657
.L714:
	movups	1100(%rcx), %xmm6
	movq	%rcx, %rdi
	movups	%xmm6, 1100(%rbx)
	movss	1116(%rcx), %xmm0
	movaps	%xmm6, -80(%rbp)
	movss	%xmm0, 1116(%rbx)
.L658:
	movdqu	1120(%rdi), %xmm3
	movups	%xmm3, 1120(%rbx)
	movdqu	1136(%rdi), %xmm6
	movups	%xmm6, 1136(%rbx)
	movq	1152(%rdi), %rax
	movaps	%xmm6, -80(%rbp)
	movq	%rax, 1152(%rbx)
	movq	%rbx, %rax
	subq	%rdi, %rax
	subq	$4, %rax
	cmpq	$8, %rax
	jbe	.L659
	movups	1160(%rdi), %xmm5
	movups	%xmm5, 1160(%rbx)
	movss	1176(%rdi), %xmm0
	movaps	%xmm5, -80(%rbp)
	movss	%xmm0, 1176(%rbx)
.L660:
	movq	%rbx, %rax
	subq	-56(%rbp), %rax
	subq	$4, %rax
	cmpq	$8, %rax
	movl	$1180, %eax
	jbe	.L661
	.p2align 4,,10
	.p2align 3
.L662:
	movq	-56(%rbp), %rsi
	movups	(%rsi,%rax), %xmm1
	movups	%xmm1, (%rbx,%rax)
	addq	$16, %rax
	movaps	%xmm1, -80(%rbp)
	cmpq	$3228, %rax
	jne	.L662
.L663:
	movq	%rbx, %rax
	subq	-56(%rbp), %rax
	subq	$4, %rax
	cmpq	$8, %rax
	movl	$3228, %eax
	jbe	.L664
	.p2align 4,,10
	.p2align 3
.L665:
	movq	-56(%rbp), %rdi
	movups	(%rdi,%rax), %xmm3
	movups	%xmm3, (%rbx,%rax)
	addq	$16, %rax
	movaps	%xmm3, -80(%rbp)
	cmpq	$5276, %rax
	jne	.L665
.L666:
	movq	-56(%rbp), %rdx
	movq	%rbx, %rax
	subq	%rdx, %rax
	subq	$4, %rax
	cmpq	$8, %rax
	jbe	.L685
	movups	5276(%rdx), %xmm3
	movups	%xmm3, 5276(%rbx)
	movups	5292(%rdx), %xmm5
	movups	%xmm5, 5292(%rbx)
	movups	5308(%rdx), %xmm7
	movups	%xmm7, 5308(%rbx)
	movups	5324(%rdx), %xmm2
	movups	%xmm2, 5324(%rbx)
	movups	5340(%rdx), %xmm4
	movaps	%xmm4, -80(%rbp)
	movups	%xmm4, 5340(%rbx)
.L668:
	movq	-56(%rbp), %rsi
	movq	%rbx, %rax
	subq	%rsi, %rax
	subq	$4, %rax
	cmpq	$8, %rax
	jbe	.L686
	movups	5356(%rsi), %xmm6
	movups	%xmm6, 5356(%rbx)
	movups	5372(%rsi), %xmm1
	movups	%xmm1, 5372(%rbx)
	movups	5388(%rsi), %xmm3
	movups	%xmm3, 5388(%rbx)
	movups	5404(%rsi), %xmm5
	movups	%xmm5, 5404(%rbx)
	movups	5420(%rsi), %xmm7
	movaps	%xmm7, -80(%rbp)
	movups	%xmm7, 5420(%rbx)
.L670:
	movq	-56(%rbp), %rax
	movq	5456(%rbx), %rdi
	movss	5436(%rax), %xmm0
	movzwl	5440(%rax), %eax
	movss	%xmm0, 5436(%rbx)
	movw	%ax, 5440(%rbx)
	testq	%rdi, %rdi
	je	.L671
	movq	$0, 5448(%rbx)
	call	_ZN5ImGui7MemFreeEPv@PLT
	movq	$0, 5456(%rbx)
.L671:
	movq	-56(%rbp), %rax
	movl	5448(%rax), %r12d
	movl	5452(%rbx), %eax
	cmpl	%eax, %r12d
	jle	.L688
	testl	%eax, %eax
	jne	.L713
	movl	$8, %eax
	cmpl	%eax, %r12d
	cmovge	%r12d, %eax
	movl	%eax, -80(%rbp)
.L679:
	movslq	-80(%rbp), %rdi
	addq	%rdi, %rdi
	call	_ZN5ImGui8MemAllocEm@PLT
	movq	5456(%rbx), %rsi
	movq	%rax, %r15
	testq	%rsi, %rsi
	je	.L674
	movslq	5448(%rbx), %rdx
	movq	%rax, %rdi
	addq	%rdx, %rdx
	call	memcpy@PLT
	movq	5456(%rbx), %rdi
	call	_ZN5ImGui7MemFreeEPv@PLT
.L674:
	movl	-80(%rbp), %eax
	movq	%r15, 5456(%rbx)
	movl	%eax, 5452(%rbx)
	jmp	.L672
	.p2align 4,,10
	.p2align 3
.L648:
	movq	-56(%rbp), %rsi
	movzbl	(%rsi,%rax), %edx
	movb	%dl, (%rbx,%rax)
	addq	$1, %rax
	cmpq	$828, %rax
	jne	.L648
	jmp	.L650
	.p2align 4,,10
	.p2align 3
.L661:
	movq	-56(%rbp), %rdi
	movss	(%rdi,%rax), %xmm0
	movss	%xmm0, (%rbx,%rax)
	addq	$4, %rax
	cmpq	$3228, %rax
	jne	.L661
	jmp	.L663
	.p2align 4,,10
	.p2align 3
.L664:
	movq	-56(%rbp), %rdx
	movss	(%rdx,%rax), %xmm0
	movss	%xmm0, (%rbx,%rax)
	addq	$4, %rax
	cmpq	$5276, %rax
	jne	.L664
	jmp	.L666
.L713:
	movl	%eax, %edx
	shrl	$31, %edx
	addl	%eax, %edx
	sarl	%edx
	addl	%eax, %edx
	cmpl	%r12d, %edx
	cmovl	%r12d, %edx
	movl	%edx, -80(%rbp)
	cmpl	%edx, %eax
	jl	.L679
.L688:
	xorl	%r15d, %r15d
.L672:
	movq	-56(%rbp), %rax
	movl	%r12d, 5448(%rbx)
	movslq	%r12d, %rdx
	movq	%r15, %rdi
	addq	%rdx, %rdx
	movq	5456(%rax), %rsi
	call	memcpy@PLT
	xorl	%edi, %edi
	call	_ZN5ImGui15StyleColorsDarkEP10ImGuiStyle@PLT
	movq	(%r14), %rdi
	movl	$1, %esi
	call	_Z28ImGui_ImplGlfw_InitForOpenGLP10GLFWwindowb@PLT
	movq	0(%r13), %rdi
	call	_Z22ImGui_ImplOpenGL3_InitPKc@PLT
.LEHE5:
	movq	5464(%rbx), %rax
	cmpq	5472(%rbx), %rax
	je	.L645
	movq	%rax, 5472(%rbx)
.L645:
	leaq	-40(%rbp), %rsp
	popq	%rbx
	popq	%r12
	popq	%r13
	popq	%r14
	popq	%r15
	popq	%rbp
	.cfi_remember_state
	.cfi_def_cfa 7, 8
	ret
.L653:
	.cfi_restore_state
	movsd	1008(%rdi), %xmm0
	movq	%rdi, %rcx
	movsd	%xmm0, 1008(%rbx)
	movsd	1016(%rdi), %xmm0
	movsd	%xmm0, 1016(%rbx)
	movsd	1024(%rdi), %xmm0
	movsd	%xmm0, 1024(%rbx)
	movsd	1032(%rdi), %xmm0
	movsd	%xmm0, 1032(%rbx)
	movsd	1040(%rdi), %xmm0
	movsd	%xmm0, 1040(%rbx)
	jmp	.L654
.L655:
	movss	1080(%rcx), %xmm0
	movq	%rbx, %rax
	subq	%rcx, %rax
	movss	%xmm0, 1080(%rbx)
	movss	1084(%rcx), %xmm0
	subq	$4, %rax
	movss	%xmm0, 1084(%rbx)
	movss	1088(%rcx), %xmm0
	movss	%xmm0, 1088(%rbx)
	movss	1092(%rcx), %xmm0
	movss	%xmm0, 1092(%rbx)
	movss	1096(%rcx), %xmm0
	movss	%xmm0, 1096(%rbx)
	cmpq	$8, %rax
	ja	.L714
.L657:
	movss	1100(%rcx), %xmm0
	movq	%rcx, %rdi
	movss	%xmm0, 1100(%rbx)
	movss	1104(%rcx), %xmm0
	movss	%xmm0, 1104(%rbx)
	movss	1108(%rcx), %xmm0
	movss	%xmm0, 1108(%rbx)
	movss	1112(%rcx), %xmm0
	movss	%xmm0, 1112(%rbx)
	movss	1116(%rcx), %xmm0
	movss	%xmm0, 1116(%rbx)
	jmp	.L658
.L659:
	movss	1160(%rdi), %xmm0
	movss	%xmm0, 1160(%rbx)
	movss	1164(%rdi), %xmm0
	movss	%xmm0, 1164(%rbx)
	movss	1168(%rdi), %xmm0
	movss	%xmm0, 1168(%rbx)
	movss	1172(%rdi), %xmm0
	movss	%xmm0, 1172(%rbx)
	movss	1176(%rdi), %xmm0
	movss	%xmm0, 1176(%rbx)
	jmp	.L660
.L680:
	movl	$52, %eax
	.p2align 4,,10
	.p2align 3
.L646:
	movq	-56(%rbp), %rdx
	movl	(%rdx,%rax), %edx
	movl	%edx, (%rbx,%rax)
	addq	$4, %rax
	cmpq	$140, %rax
	jne	.L646
	jmp	.L647
.L682:
	movl	$828, %eax
	.p2align 4,,10
	.p2align 3
.L651:
	movq	-56(%rbp), %rcx
	movss	(%rcx,%rax), %xmm0
	movss	%xmm0, (%rbx,%rax)
	addq	$4, %rax
	cmpq	$908, %rax
	jne	.L651
	jmp	.L652
.L685:
	movl	$5276, %eax
	.p2align 4,,10
	.p2align 3
.L667:
	movq	-56(%rbp), %rdi
	movss	(%rdi,%rax), %xmm0
	movss	%xmm0, (%rbx,%rax)
	addq	$4, %rax
	cmpq	$5356, %rax
	jne	.L667
	jmp	.L668
.L686:
	movl	$5356, %eax
	.p2align 4,,10
	.p2align 3
.L669:
	movq	-56(%rbp), %rcx
	movss	(%rcx,%rax), %xmm0
	movss	%xmm0, (%rbx,%rax)
	addq	$4, %rax
	cmpq	$5436, %rax
	jne	.L669
	jmp	.L670
.L689:
	movq	%rax, %r14
	jmp	.L676
	.section	.gcc_except_table
.LLSDA4705:
	.byte	0xff
	.byte	0xff
	.byte	0x1
	.uleb128 .LLSDACSE4705-.LLSDACSB4705
.LLSDACSB4705:
	.uleb128 .LEHB4-.LFB4705
	.uleb128 .LEHE4-.LEHB4
	.uleb128 0
	.uleb128 0
	.uleb128 .LEHB5-.LFB4705
	.uleb128 .LEHE5-.LEHB5
	.uleb128 .L689-.LFB4705
	.uleb128 0
.LLSDACSE4705:
	.text
	.cfi_endproc
	.section	.text.unlikely
	.cfi_startproc
	.cfi_personality 0x9b,DW.ref.__gxx_personality_v0
	.cfi_lsda 0x1b,.LLSDAC4705
	.type	_ZN5ImguiC2ERKNSt7__cxx1112basic_stringIcSt11char_traitsIcESaIcEEEP6Window.cold, @function
_ZN5ImguiC2ERKNSt7__cxx1112basic_stringIcSt11char_traitsIcESaIcEEEP6Window.cold:
.LFSB4705:
.L676:
	.cfi_def_cfa 6, 16
	.cfi_offset 3, -56
	.cfi_offset 6, -16
	.cfi_offset 12, -48
	.cfi_offset 13, -40
	.cfi_offset 14, -32
	.cfi_offset 15, -24
	movq	5464(%rbx), %rdi
	movq	5480(%rbx), %rsi
	subq	%rdi, %rsi
	testq	%rdi, %rdi
	je	.L677
	call	_ZdlPvm@PLT
.L677:
	movq	5456(%rbx), %rdi
	testq	%rdi, %rdi
	je	.L678
	call	_ZN5ImGui7MemFreeEPv@PLT
.L678:
	movq	%r14, %rdi
.LEHB6:
	call	_Unwind_Resume@PLT
.LEHE6:
	.cfi_endproc
.LFE4705:
	.section	.gcc_except_table
.LLSDAC4705:
	.byte	0xff
	.byte	0xff
	.byte	0x1
	.uleb128 .LLSDACSEC4705-.LLSDACSBC4705
.LLSDACSBC4705:
	.uleb128 .LEHB6-.LCOLDB37
	.uleb128 .LEHE6-.LEHB6
	.uleb128 0
	.uleb128 0
.LLSDACSEC4705:
	.section	.text.unlikely
	.text
	.size	_ZN5ImguiC2ERKNSt7__cxx1112basic_stringIcSt11char_traitsIcESaIcEEEP6Window, .-_ZN5ImguiC2ERKNSt7__cxx1112basic_stringIcSt11char_traitsIcESaIcEEEP6Window
	.section	.text.unlikely
	.size	_ZN5ImguiC2ERKNSt7__cxx1112basic_stringIcSt11char_traitsIcESaIcEEEP6Window.cold, .-_ZN5ImguiC2ERKNSt7__cxx1112basic_stringIcSt11char_traitsIcESaIcEEEP6Window.cold
.LCOLDE37:
	.text
.LHOTE37:
	.globl	_ZN5ImguiC1ERKNSt7__cxx1112basic_stringIcSt11char_traitsIcESaIcEEEP6Window
	.set	_ZN5ImguiC1ERKNSt7__cxx1112basic_stringIcSt11char_traitsIcESaIcEEEP6Window,_ZN5ImguiC2ERKNSt7__cxx1112basic_stringIcSt11char_traitsIcESaIcEEEP6Window
	.align 2
	.p2align 4
	.globl	_ZN5Imgui8shutdownEv
	.type	_ZN5Imgui8shutdownEv, @function
_ZN5Imgui8shutdownEv:
.LFB4707:
	.cfi_startproc
	subq	$8, %rsp
	.cfi_def_cfa_offset 16
	call	_Z26ImGui_ImplOpenGL3_Shutdownv@PLT
	call	_Z23ImGui_ImplGlfw_Shutdownv@PLT
	xorl	%edi, %edi
	addq	$8, %rsp
	.cfi_def_cfa_offset 8
	jmp	_ZN5ImGui14DestroyContextEP12ImGuiContext@PLT
	.cfi_endproc
.LFE4707:
	.size	_ZN5Imgui8shutdownEv, .-_ZN5Imgui8shutdownEv
	.align 2
	.p2align 4
	.globl	_ZN5Imgui8newFrameEv
	.type	_ZN5Imgui8newFrameEv, @function
_ZN5Imgui8newFrameEv:
.LFB4708:
	.cfi_startproc
	subq	$8, %rsp
	.cfi_def_cfa_offset 16
	call	_Z26ImGui_ImplOpenGL3_NewFramev@PLT
	call	_Z23ImGui_ImplGlfw_NewFramev@PLT
	addq	$8, %rsp
	.cfi_def_cfa_offset 8
	jmp	_ZN5ImGui8NewFrameEv@PLT
	.cfi_endproc
.LFE4708:
	.size	_ZN5Imgui8newFrameEv, .-_ZN5Imgui8newFrameEv
	.section	.rodata.str1.1
.LC38:
	.string	"vector::_M_realloc_insert"
	.text
	.align 2
	.p2align 4
	.globl	_ZN5Imgui9addWindowEP11ImguiWindow
	.type	_ZN5Imgui9addWindowEP11ImguiWindow, @function
_ZN5Imgui9addWindowEP11ImguiWindow:
.LFB4710:
	.cfi_startproc
	pushq	%r14
	.cfi_def_cfa_offset 16
	.cfi_offset 14, -16
	pushq	%r13
	.cfi_def_cfa_offset 24
	.cfi_offset 13, -24
	movq	%rsi, %r13
	pushq	%r12
	.cfi_def_cfa_offset 32
	.cfi_offset 12, -32
	pushq	%rbp
	.cfi_def_cfa_offset 40
	.cfi_offset 6, -40
	pushq	%rbx
	.cfi_def_cfa_offset 48
	.cfi_offset 3, -48
	movq	%rdi, %rbx
	subq	$16, %rsp
	.cfi_def_cfa_offset 64
	movq	5472(%rdi), %rax
	cmpq	5480(%rdi), %rax
	je	.L720
	movq	%rsi, (%rax)
	addq	$8, %rax
	movq	%rax, 5472(%rdi)
	addq	$16, %rsp
	.cfi_remember_state
	.cfi_def_cfa_offset 48
	movq	%r13, %rax
	popq	%rbx
	.cfi_def_cfa_offset 40
	popq	%rbp
	.cfi_def_cfa_offset 32
	popq	%r12
	.cfi_def_cfa_offset 24
	popq	%r13
	.cfi_def_cfa_offset 16
	popq	%r14
	.cfi_def_cfa_offset 8
	ret
	.p2align 4,,10
	.p2align 3
.L720:
	.cfi_restore_state
	movq	5464(%rdi), %r14
	subq	%r14, %rax
	movq	%rax, %rdx
	movq	%rax, %r12
	movabsq	$1152921504606846975, %rax
	sarq	$3, %rdx
	cmpq	%rax, %rdx
	je	.L738
	testq	%rdx, %rdx
	movl	$1, %eax
	cmovne	%rdx, %rax
	addq	%rdx, %rax
	jc	.L724
	testq	%rax, %rax
	jne	.L739
	xorl	%ebp, %ebp
	xorl	%edi, %edi
.L726:
	leaq	8(%rdi,%r12), %rax
	movq	%rdi, %xmm0
	movq	%r13, (%rdi,%r12)
	movq	%rax, %xmm1
	punpcklqdq	%xmm1, %xmm0
	testq	%r12, %r12
	jg	.L740
	testq	%r14, %r14
	jne	.L741
.L729:
	movq	%rbp, 5480(%rbx)
	movq	%r13, %rax
	movups	%xmm0, 5464(%rbx)
	addq	$16, %rsp
	.cfi_remember_state
	.cfi_def_cfa_offset 48
	popq	%rbx
	.cfi_def_cfa_offset 40
	popq	%rbp
	.cfi_def_cfa_offset 32
	popq	%r12
	.cfi_def_cfa_offset 24
	popq	%r13
	.cfi_def_cfa_offset 16
	popq	%r14
	.cfi_def_cfa_offset 8
	ret
	.p2align 4,,10
	.p2align 3
.L740:
	.cfi_restore_state
	movq	%r14, %rsi
	movq	%r12, %rdx
	movaps	%xmm0, (%rsp)
	call	memmove@PLT
	movq	5480(%rbx), %rsi
	movdqa	(%rsp), %xmm0
	subq	%r14, %rsi
.L728:
	movq	%r14, %rdi
	movaps	%xmm0, (%rsp)
	call	_ZdlPvm@PLT
	movdqa	(%rsp), %xmm0
	jmp	.L729
	.p2align 4,,10
	.p2align 3
.L741:
	movq	5480(%rbx), %rsi
	subq	%r14, %rsi
	jmp	.L728
.L739:
	movabsq	$1152921504606846975, %rdx
	cmpq	%rdx, %rax
	cmova	%rdx, %rax
	leaq	0(,%rax,8), %rbp
.L725:
	movq	%rbp, %rdi
	call	_Znwm@PLT
	movq	%rax, %rdi
	addq	%rax, %rbp
	jmp	.L726
.L724:
	movabsq	$9223372036854775800, %rbp
	jmp	.L725
.L738:
	leaq	.LC38(%rip), %rdi
	call	_ZSt20__throw_length_errorPKc@PLT
	.cfi_endproc
.LFE4710:
	.size	_ZN5Imgui9addWindowEP11ImguiWindow, .-_ZN5Imgui9addWindowEP11ImguiWindow
	.section	.rodata.str1.8
	.align 8
.LC39:
	.string	"An ImGui window with a title \"%s\" is not found"
	.text
	.align 2
	.p2align 4
	.globl	_ZN5Imgui12removeWindowERKNSt7__cxx1112basic_stringIcSt11char_traitsIcESaIcEEE
	.type	_ZN5Imgui12removeWindowERKNSt7__cxx1112basic_stringIcSt11char_traitsIcESaIcEEE, @function
_ZN5Imgui12removeWindowERKNSt7__cxx1112basic_stringIcSt11char_traitsIcESaIcEEE:
.LFB4711:
	.cfi_startproc
	pushq	%r15
	.cfi_def_cfa_offset 16
	.cfi_offset 15, -16
	xorl	%r15d, %r15d
	pushq	%r14
	.cfi_def_cfa_offset 24
	.cfi_offset 14, -24
	pushq	%r13
	.cfi_def_cfa_offset 32
	.cfi_offset 13, -32
	pushq	%r12
	.cfi_def_cfa_offset 40
	.cfi_offset 12, -40
	pushq	%rbp
	.cfi_def_cfa_offset 48
	.cfi_offset 6, -48
	movq	%rdi, %rbp
	pushq	%rbx
	.cfi_def_cfa_offset 56
	.cfi_offset 3, -56
	movq	%rsi, %rbx
	subq	$88, %rsp
	.cfi_def_cfa_offset 144
	movq	5464(%rdi), %rsi
	movq	%fs:40, %rax
	movq	%rax, 72(%rsp)
	xorl	%eax, %eax
	leaq	24(%rsp), %rcx
	leaq	48(%rsp), %r14
	movq	%rcx, 8(%rsp)
	cmpq	%rsi, 5472(%rdi)
	jne	.L743
	jmp	.L754
	.p2align 4,,10
	.p2align 3
.L750:
	cmpq	%r14, %r12
	je	.L777
	movq	48(%rsp), %rax
	movq	%r12, %rdi
	leaq	1(%rax), %rsi
	call	_ZdlPvm@PLT
.L777:
	movq	5464(%rbp), %rsi
	movq	5472(%rbp), %rdx
	leal	1(%r15), %eax
	movq	%rax, %r15
	subq	%rsi, %rdx
	sarq	$3, %rdx
	cmpq	%rdx, %rax
	jnb	.L754
.L743:
	leaq	0(,%rax,8), %rcx
	movq	(%rsi,%rax,8), %rax
	movq	%r14, 32(%rsp)
	movq	%rcx, (%rsp)
	movq	32(%rax), %r13
	movq	40(%rax), %r12
	movq	%r13, %rax
	addq	%r12, %rax
	je	.L745
	testq	%r13, %r13
	je	.L780
.L745:
	movq	%r12, 24(%rsp)
	cmpq	$15, %r12
	ja	.L781
	cmpq	$1, %r12
	jne	.L748
	movzbl	0(%r13), %eax
	movb	%al, 48(%rsp)
	movq	%r14, %rax
.L749:
	movq	%r12, 40(%rsp)
	movb	$0, (%rax,%r12)
	movq	32(%rsp), %r12
	movq	40(%rsp), %rdx
	movq	(%rbx), %rsi
	cmpq	8(%rbx), %rdx
	jne	.L750
	testq	%rdx, %rdx
	je	.L751
	movq	%r12, %rdi
	call	memcmp@PLT
	testl	%eax, %eax
	jne	.L750
.L751:
	cmpq	%r14, %r12
	je	.L752
	movq	48(%rsp), %rax
	movq	%r12, %rdi
	leaq	1(%rax), %rsi
	call	_ZdlPvm@PLT
.L752:
	movq	(%rsp), %rdi
	movq	5472(%rbp), %rdx
	addq	5464(%rbp), %rdi
	leaq	8(%rdi), %rsi
	cmpq	%rsi, %rdx
	je	.L755
	subq	%rsi, %rdx
	call	memmove@PLT
	movq	5472(%rbp), %rsi
.L755:
	subq	$8, %rsi
	movq	%rsi, 5472(%rbp)
	movq	72(%rsp), %rax
	subq	%fs:40, %rax
	jne	.L776
	addq	$88, %rsp
	.cfi_remember_state
	.cfi_def_cfa_offset 56
	popq	%rbx
	.cfi_def_cfa_offset 48
	popq	%rbp
	.cfi_def_cfa_offset 40
	popq	%r12
	.cfi_def_cfa_offset 32
	popq	%r13
	.cfi_def_cfa_offset 24
	popq	%r14
	.cfi_def_cfa_offset 16
	popq	%r15
	.cfi_def_cfa_offset 8
	ret
	.p2align 4,,10
	.p2align 3
.L748:
	.cfi_restore_state
	testq	%r12, %r12
	jne	.L782
	movq	%r14, %rax
	jmp	.L749
	.p2align 4,,10
	.p2align 3
.L781:
	movq	8(%rsp), %rsi
	leaq	32(%rsp), %rdi
	xorl	%edx, %edx
	call	_ZNSt7__cxx1112basic_stringIcSt11char_traitsIcESaIcEE9_M_createERmm@PLT
	movq	%rax, 32(%rsp)
	movq	%rax, %rdi
	movq	24(%rsp), %rax
	movq	%rax, 48(%rsp)
.L747:
	movq	%r12, %rdx
	movq	%r13, %rsi
	call	memcpy@PLT
	movq	24(%rsp), %r12
	movq	32(%rsp), %rax
	jmp	.L749
	.p2align 4,,10
	.p2align 3
.L754:
	movq	72(%rsp), %rax
	subq	%fs:40, %rax
	jne	.L776
	movq	(%rbx), %r9
	addq	$88, %rsp
	.cfi_remember_state
	.cfi_def_cfa_offset 56
	leaq	.LC39(%rip), %r8
	xorl	%eax, %eax
	popq	%rbx
	.cfi_def_cfa_offset 48
	leaq	.LC3(%rip), %rcx
	popq	%rbp
	.cfi_def_cfa_offset 40
	movl	$44, %edx
	popq	%r12
	.cfi_def_cfa_offset 32
	leaq	.LC6(%rip), %rsi
	popq	%r13
	.cfi_def_cfa_offset 24
	movl	$1, %edi
	popq	%r14
	.cfi_def_cfa_offset 16
	popq	%r15
	.cfi_def_cfa_offset 8
	jmp	_ZN6logger3logEiPKciS1_S1_z
.L780:
	.cfi_restore_state
	leaq	.LC7(%rip), %rdi
	call	_ZSt19__throw_logic_errorPKc@PLT
.L782:
	movq	%r14, %rdi
	jmp	.L747
.L776:
	call	__stack_chk_fail@PLT
	.cfi_endproc
.LFE4711:
	.size	_ZN5Imgui12removeWindowERKNSt7__cxx1112basic_stringIcSt11char_traitsIcESaIcEEE, .-_ZN5Imgui12removeWindowERKNSt7__cxx1112basic_stringIcSt11char_traitsIcESaIcEEE
	.align 2
	.p2align 4
	.globl	_ZN5Imgui9needMouseEv
	.type	_ZN5Imgui9needMouseEv, @function
_ZN5Imgui9needMouseEv:
.LFB4712:
	.cfi_startproc
	movzbl	908(%rdi), %eax
	ret
	.cfi_endproc
.LFE4712:
	.size	_ZN5Imgui9needMouseEv, .-_ZN5Imgui9needMouseEv
	.align 2
	.p2align 4
	.globl	_ZN5Imgui5getIOEv
	.type	_ZN5Imgui5getIOEv, @function
_ZN5Imgui5getIOEv:
.LFB4713:
	.cfi_startproc
	movq	%rdi, %rax
	ret
	.cfi_endproc
.LFE4713:
	.size	_ZN5Imgui5getIOEv, .-_ZN5Imgui5getIOEv
	.align 2
	.p2align 4
	.globl	_ZN5Imgui6renderEv
	.type	_ZN5Imgui6renderEv, @function
_ZN5Imgui6renderEv:
.LFB4714:
	.cfi_startproc
	pushq	%rbp
	.cfi_def_cfa_offset 16
	.cfi_offset 6, -16
	pushq	%rbx
	.cfi_def_cfa_offset 24
	.cfi_offset 3, -24
	subq	$8, %rsp
	.cfi_def_cfa_offset 32
	movq	5464(%rdi), %rbx
	movq	5472(%rdi), %rbp
	cmpq	%rbx, %rbp
	je	.L786
	.p2align 4,,10
	.p2align 3
.L787:
	movq	(%rbx), %rdi
	addq	$8, %rbx
	movq	(%rdi), %rax
	call	*(%rax)
	cmpq	%rbx, %rbp
	jne	.L787
.L786:
	call	_ZN5ImGui6RenderEv@PLT
	call	_ZN5ImGui11GetDrawDataEv@PLT
	addq	$8, %rsp
	.cfi_def_cfa_offset 24
	popq	%rbx
	.cfi_def_cfa_offset 16
	movq	%rax, %rdi
	popq	%rbp
	.cfi_def_cfa_offset 8
	jmp	_Z32ImGui_ImplOpenGL3_RenderDrawDataP10ImDrawData@PLT
	.cfi_endproc
.LFE4714:
	.size	_ZN5Imgui6renderEv, .-_ZN5Imgui6renderEv
	.section	.text.unlikely
	.align 2
.LCOLDB40:
	.text
.LHOTB40:
	.align 2
	.p2align 4
	.globl	_ZN11ImguiWindowC2ERKNSt7__cxx1112basic_stringIcSt11char_traitsIcESaIcEEE
	.type	_ZN11ImguiWindowC2ERKNSt7__cxx1112basic_stringIcSt11char_traitsIcESaIcEEE, @function
_ZN11ImguiWindowC2ERKNSt7__cxx1112basic_stringIcSt11char_traitsIcESaIcEEE:
.LFB4726:
	.cfi_startproc
	.cfi_personality 0x9b,DW.ref.__gxx_personality_v0
	.cfi_lsda 0x1b,.LLSDA4726
	pushq	%r12
	.cfi_def_cfa_offset 16
	.cfi_offset 12, -16
	leaq	16+_ZTV11ImguiWindow(%rip), %rax
	pushq	%rbp
	.cfi_def_cfa_offset 24
	.cfi_offset 6, -24
	pushq	%rbx
	.cfi_def_cfa_offset 32
	.cfi_offset 3, -32
	movq	%rdi, %rbx
	leaq	32(%rdi), %rdi
	leaq	48(%rbx), %rbp
	movq	%rax, -32(%rdi)
	movq	$0, -24(%rdi)
	movq	$0, -16(%rdi)
	movq	$0, -8(%rdi)
	movq	%rbp, 32(%rbx)
	movq	$0, 40(%rbx)
	movb	$0, 48(%rbx)
.LEHB7:
	call	_ZNSt7__cxx1112basic_stringIcSt11char_traitsIcESaIcEE9_M_assignERKS4_@PLT
.LEHE7:
	movq	8(%rbx), %rax
	cmpq	16(%rbx), %rax
	je	.L790
	movq	%rax, 16(%rbx)
.L790:
	popq	%rbx
	.cfi_remember_state
	.cfi_def_cfa_offset 24
	popq	%rbp
	.cfi_def_cfa_offset 16
	popq	%r12
	.cfi_def_cfa_offset 8
	ret
.L795:
	.cfi_restore_state
	movq	%rax, %r12
	jmp	.L792
	.section	.gcc_except_table
.LLSDA4726:
	.byte	0xff
	.byte	0xff
	.byte	0x1
	.uleb128 .LLSDACSE4726-.LLSDACSB4726
.LLSDACSB4726:
	.uleb128 .LEHB7-.LFB4726
	.uleb128 .LEHE7-.LEHB7
	.uleb128 .L795-.LFB4726
	.uleb128 0
.LLSDACSE4726:
	.text
	.cfi_endproc
	.section	.text.unlikely
	.cfi_startproc
	.cfi_personality 0x9b,DW.ref.__gxx_personality_v0
	.cfi_lsda 0x1b,.LLSDAC4726
	.type	_ZN11ImguiWindowC2ERKNSt7__cxx1112basic_stringIcSt11char_traitsIcESaIcEEE.cold, @function
_ZN11ImguiWindowC2ERKNSt7__cxx1112basic_stringIcSt11char_traitsIcESaIcEEE.cold:
.LFSB4726:
.L792:
	.cfi_def_cfa_offset 32
	.cfi_offset 3, -32
	.cfi_offset 6, -24
	.cfi_offset 12, -16
	movq	32(%rbx), %rdi
	cmpq	%rdi, %rbp
	je	.L793
	movq	48(%rbx), %rax
	leaq	1(%rax), %rsi
	call	_ZdlPvm@PLT
.L793:
	movq	8(%rbx), %rdi
	movq	24(%rbx), %rsi
	subq	%rdi, %rsi
	testq	%rdi, %rdi
	je	.L794
	call	_ZdlPvm@PLT
.L794:
	movq	%r12, %rdi
.LEHB8:
	call	_Unwind_Resume@PLT
.LEHE8:
	.cfi_endproc
.LFE4726:
	.section	.gcc_except_table
.LLSDAC4726:
	.byte	0xff
	.byte	0xff
	.byte	0x1
	.uleb128 .LLSDACSEC4726-.LLSDACSBC4726
.LLSDACSBC4726:
	.uleb128 .LEHB8-.LCOLDB40
	.uleb128 .LEHE8-.LEHB8
	.uleb128 0
	.uleb128 0
.LLSDACSEC4726:
	.section	.text.unlikely
	.text
	.size	_ZN11ImguiWindowC2ERKNSt7__cxx1112basic_stringIcSt11char_traitsIcESaIcEEE, .-_ZN11ImguiWindowC2ERKNSt7__cxx1112basic_stringIcSt11char_traitsIcESaIcEEE
	.section	.text.unlikely
	.size	_ZN11ImguiWindowC2ERKNSt7__cxx1112basic_stringIcSt11char_traitsIcESaIcEEE.cold, .-_ZN11ImguiWindowC2ERKNSt7__cxx1112basic_stringIcSt11char_traitsIcESaIcEEE.cold
.LCOLDE40:
	.text
.LHOTE40:
	.globl	_ZN11ImguiWindowC1ERKNSt7__cxx1112basic_stringIcSt11char_traitsIcESaIcEEE
	.set	_ZN11ImguiWindowC1ERKNSt7__cxx1112basic_stringIcSt11char_traitsIcESaIcEEE,_ZN11ImguiWindowC2ERKNSt7__cxx1112basic_stringIcSt11char_traitsIcESaIcEEE
	.align 2
	.p2align 4
	.globl	_ZN11ImguiWindow8getTitleB5cxx11Ev
	.type	_ZN11ImguiWindow8getTitleB5cxx11Ev, @function
_ZN11ImguiWindow8getTitleB5cxx11Ev:
.LFB4728:
	.cfi_startproc
	pushq	%r13
	.cfi_def_cfa_offset 16
	.cfi_offset 13, -16
	pushq	%r12
	.cfi_def_cfa_offset 24
	.cfi_offset 12, -24
	movq	%rdi, %r12
	addq	$16, %rdi
	pushq	%rbp
	.cfi_def_cfa_offset 32
	.cfi_offset 6, -32
	subq	$16, %rsp
	.cfi_def_cfa_offset 48
	movq	40(%rsi), %r13
	movq	%fs:40, %rax
	movq	%rax, 8(%rsp)
	xorl	%eax, %eax
	movq	%rdi, (%r12)
	movq	32(%rsi), %rbp
	movq	%rbp, %rax
	addq	%r13, %rax
	je	.L801
	testq	%rbp, %rbp
	je	.L817
.L801:
	movq	%r13, (%rsp)
	cmpq	$15, %r13
	ja	.L818
	cmpq	$1, %r13
	jne	.L804
	movzbl	0(%rbp), %eax
	movb	%al, 16(%r12)
.L805:
	movq	%r13, 8(%r12)
	movb	$0, (%rdi,%r13)
	movq	8(%rsp), %rax
	subq	%fs:40, %rax
	jne	.L819
	addq	$16, %rsp
	.cfi_remember_state
	.cfi_def_cfa_offset 32
	movq	%r12, %rax
	popq	%rbp
	.cfi_def_cfa_offset 24
	popq	%r12
	.cfi_def_cfa_offset 16
	popq	%r13
	.cfi_def_cfa_offset 8
	ret
	.p2align 4,,10
	.p2align 3
.L804:
	.cfi_restore_state
	testq	%r13, %r13
	je	.L805
	jmp	.L803
	.p2align 4,,10
	.p2align 3
.L818:
	movq	%r12, %rdi
	movq	%rsp, %rsi
	xorl	%edx, %edx
	call	_ZNSt7__cxx1112basic_stringIcSt11char_traitsIcESaIcEE9_M_createERmm@PLT
	movq	%rax, (%r12)
	movq	%rax, %rdi
	movq	(%rsp), %rax
	movq	%rax, 16(%r12)
.L803:
	movq	%r13, %rdx
	movq	%rbp, %rsi
	call	memcpy@PLT
	movq	(%rsp), %r13
	movq	(%r12), %rdi
	jmp	.L805
.L817:
	leaq	.LC7(%rip), %rdi
	call	_ZSt19__throw_logic_errorPKc@PLT
.L819:
	call	__stack_chk_fail@PLT
	.cfi_endproc
.LFE4728:
	.size	_ZN11ImguiWindow8getTitleB5cxx11Ev, .-_ZN11ImguiWindow8getTitleB5cxx11Ev
	.section	.rodata.str1.8
	.align 8
.LC41:
	.string	"Doesnt found element with \"%s\""
	.text
	.align 2
	.p2align 4
	.globl	_ZN11ImguiWindow10getElementERKNSt7__cxx1112basic_stringIcSt11char_traitsIcESaIcEEE
	.type	_ZN11ImguiWindow10getElementERKNSt7__cxx1112basic_stringIcSt11char_traitsIcESaIcEEE, @function
_ZN11ImguiWindow10getElementERKNSt7__cxx1112basic_stringIcSt11char_traitsIcESaIcEEE:
.LFB4729:
	.cfi_startproc
	pushq	%r15
	.cfi_def_cfa_offset 16
	.cfi_offset 15, -16
	xorl	%r15d, %r15d
	pushq	%r14
	.cfi_def_cfa_offset 24
	.cfi_offset 14, -24
	pushq	%r13
	.cfi_def_cfa_offset 32
	.cfi_offset 13, -32
	pushq	%r12
	.cfi_def_cfa_offset 40
	.cfi_offset 12, -40
	pushq	%rbp
	.cfi_def_cfa_offset 48
	.cfi_offset 6, -48
	movq	%rdi, %rbp
	pushq	%rbx
	.cfi_def_cfa_offset 56
	.cfi_offset 3, -56
	movq	%rsi, %rbx
	subq	$88, %rsp
	.cfi_def_cfa_offset 144
	movq	8(%rdi), %rsi
	movq	%fs:40, %rax
	movq	%rax, 72(%rsp)
	xorl	%eax, %eax
	leaq	24(%rsp), %rcx
	leaq	48(%rsp), %r14
	movq	%rcx, 8(%rsp)
	cmpq	16(%rdi), %rsi
	jne	.L821
	jmp	.L832
	.p2align 4,,10
	.p2align 3
.L828:
	cmpq	%r14, %r12
	je	.L852
	movq	48(%rsp), %rax
	movq	%r12, %rdi
	leaq	1(%rax), %rsi
	call	_ZdlPvm@PLT
.L852:
	movq	8(%rbp), %rsi
	movq	16(%rbp), %rdx
	leal	1(%r15), %eax
	movq	%rax, %r15
	subq	%rsi, %rdx
	sarq	$3, %rdx
	cmpq	%rdx, %rax
	jnb	.L832
.L821:
	leaq	0(,%rax,8), %rcx
	movq	(%rsi,%rax,8), %rax
	movq	%r14, 32(%rsp)
	movq	%rcx, (%rsp)
	movq	8(%rax), %r13
	movq	16(%rax), %r12
	movq	%r13, %rax
	addq	%r12, %rax
	je	.L823
	testq	%r13, %r13
	je	.L855
.L823:
	movq	%r12, 24(%rsp)
	cmpq	$15, %r12
	ja	.L856
	cmpq	$1, %r12
	jne	.L826
	movzbl	0(%r13), %eax
	movb	%al, 48(%rsp)
	movq	%r14, %rax
.L827:
	movq	%r12, 40(%rsp)
	movb	$0, (%rax,%r12)
	movq	32(%rsp), %r12
	movq	40(%rsp), %rdx
	movq	(%rbx), %rsi
	cmpq	8(%rbx), %rdx
	jne	.L828
	testq	%rdx, %rdx
	je	.L829
	movq	%r12, %rdi
	call	memcmp@PLT
	testl	%eax, %eax
	jne	.L828
.L829:
	cmpq	%r14, %r12
	je	.L830
	movq	48(%rsp), %rax
	movq	%r12, %rdi
	leaq	1(%rax), %rsi
	call	_ZdlPvm@PLT
.L830:
	movq	8(%rbp), %rax
	movq	(%rsp), %rbx
	movq	(%rax,%rbx), %rax
.L820:
	movq	72(%rsp), %rdx
	subq	%fs:40, %rdx
	jne	.L857
	addq	$88, %rsp
	.cfi_remember_state
	.cfi_def_cfa_offset 56
	popq	%rbx
	.cfi_def_cfa_offset 48
	popq	%rbp
	.cfi_def_cfa_offset 40
	popq	%r12
	.cfi_def_cfa_offset 32
	popq	%r13
	.cfi_def_cfa_offset 24
	popq	%r14
	.cfi_def_cfa_offset 16
	popq	%r15
	.cfi_def_cfa_offset 8
	ret
	.p2align 4,,10
	.p2align 3
.L826:
	.cfi_restore_state
	testq	%r12, %r12
	jne	.L858
	movq	%r14, %rax
	jmp	.L827
	.p2align 4,,10
	.p2align 3
.L856:
	movq	8(%rsp), %rsi
	leaq	32(%rsp), %rdi
	xorl	%edx, %edx
	call	_ZNSt7__cxx1112basic_stringIcSt11char_traitsIcESaIcEE9_M_createERmm@PLT
	movq	%rax, 32(%rsp)
	movq	%rax, %rdi
	movq	24(%rsp), %rax
	movq	%rax, 48(%rsp)
.L825:
	movq	%r12, %rdx
	movq	%r13, %rsi
	call	memcpy@PLT
	movq	24(%rsp), %r12
	movq	32(%rsp), %rax
	jmp	.L827
	.p2align 4,,10
	.p2align 3
.L832:
	movq	(%rbx), %r9
	xorl	%eax, %eax
	movl	$75, %edx
	movl	$2, %edi
	leaq	.LC41(%rip), %r8
	leaq	.LC3(%rip), %rcx
	leaq	.LC6(%rip), %rsi
	call	_ZN6logger3logEiPKciS1_S1_z.constprop.0
	xorl	%eax, %eax
	jmp	.L820
.L855:
	leaq	.LC7(%rip), %rdi
	call	_ZSt19__throw_logic_errorPKc@PLT
.L858:
	movq	%r14, %rdi
	jmp	.L825
.L857:
	call	__stack_chk_fail@PLT
	.cfi_endproc
.LFE4729:
	.size	_ZN11ImguiWindow10getElementERKNSt7__cxx1112basic_stringIcSt11char_traitsIcESaIcEEE, .-_ZN11ImguiWindow10getElementERKNSt7__cxx1112basic_stringIcSt11char_traitsIcESaIcEEE
	.section	.rodata.str1.8
	.align 8
.LC42:
	.string	"An element with id \"%s\" isnt found"
	.text
	.align 2
	.p2align 4
	.globl	_ZN11ImguiWindow13removeElementERKNSt7__cxx1112basic_stringIcSt11char_traitsIcESaIcEEE
	.type	_ZN11ImguiWindow13removeElementERKNSt7__cxx1112basic_stringIcSt11char_traitsIcESaIcEEE, @function
_ZN11ImguiWindow13removeElementERKNSt7__cxx1112basic_stringIcSt11char_traitsIcESaIcEEE:
.LFB4731:
	.cfi_startproc
	pushq	%r15
	.cfi_def_cfa_offset 16
	.cfi_offset 15, -16
	xorl	%r15d, %r15d
	pushq	%r14
	.cfi_def_cfa_offset 24
	.cfi_offset 14, -24
	pushq	%r13
	.cfi_def_cfa_offset 32
	.cfi_offset 13, -32
	pushq	%r12
	.cfi_def_cfa_offset 40
	.cfi_offset 12, -40
	pushq	%rbp
	.cfi_def_cfa_offset 48
	.cfi_offset 6, -48
	movq	%rdi, %rbp
	pushq	%rbx
	.cfi_def_cfa_offset 56
	.cfi_offset 3, -56
	movq	%rsi, %rbx
	subq	$88, %rsp
	.cfi_def_cfa_offset 144
	movq	8(%rdi), %rsi
	movq	%fs:40, %rax
	movq	%rax, 72(%rsp)
	xorl	%eax, %eax
	leaq	24(%rsp), %rcx
	leaq	48(%rsp), %r14
	movq	%rcx, 8(%rsp)
	cmpq	%rsi, 16(%rdi)
	jne	.L860
	jmp	.L871
	.p2align 4,,10
	.p2align 3
.L867:
	cmpq	%r14, %r12
	je	.L894
	movq	48(%rsp), %rax
	movq	%r12, %rdi
	leaq	1(%rax), %rsi
	call	_ZdlPvm@PLT
.L894:
	movq	8(%rbp), %rsi
	movq	16(%rbp), %rdx
	leal	1(%r15), %eax
	movq	%rax, %r15
	subq	%rsi, %rdx
	sarq	$3, %rdx
	cmpq	%rdx, %rax
	jnb	.L871
.L860:
	leaq	0(,%rax,8), %rcx
	movq	(%rsi,%rax,8), %rax
	movq	%r14, 32(%rsp)
	movq	%rcx, (%rsp)
	movq	8(%rax), %r13
	movq	16(%rax), %r12
	movq	%r13, %rax
	addq	%r12, %rax
	je	.L862
	testq	%r13, %r13
	je	.L897
.L862:
	movq	%r12, 24(%rsp)
	cmpq	$15, %r12
	ja	.L898
	cmpq	$1, %r12
	jne	.L865
	movzbl	0(%r13), %eax
	movb	%al, 48(%rsp)
	movq	%r14, %rax
.L866:
	movq	%r12, 40(%rsp)
	movb	$0, (%rax,%r12)
	movq	32(%rsp), %r12
	movq	40(%rsp), %rdx
	movq	(%rbx), %rsi
	cmpq	8(%rbx), %rdx
	jne	.L867
	testq	%rdx, %rdx
	je	.L868
	movq	%r12, %rdi
	call	memcmp@PLT
	testl	%eax, %eax
	jne	.L867
.L868:
	cmpq	%r14, %r12
	je	.L869
	movq	48(%rsp), %rax
	movq	%r12, %rdi
	leaq	1(%rax), %rsi
	call	_ZdlPvm@PLT
.L869:
	movq	(%rsp), %rdi
	movq	16(%rbp), %rdx
	addq	8(%rbp), %rdi
	leaq	8(%rdi), %rsi
	cmpq	%rsi, %rdx
	je	.L872
	subq	%rsi, %rdx
	call	memmove@PLT
	movq	16(%rbp), %rsi
.L872:
	subq	$8, %rsi
	movq	%rsi, 16(%rbp)
	movq	72(%rsp), %rax
	subq	%fs:40, %rax
	jne	.L893
	addq	$88, %rsp
	.cfi_remember_state
	.cfi_def_cfa_offset 56
	popq	%rbx
	.cfi_def_cfa_offset 48
	popq	%rbp
	.cfi_def_cfa_offset 40
	popq	%r12
	.cfi_def_cfa_offset 32
	popq	%r13
	.cfi_def_cfa_offset 24
	popq	%r14
	.cfi_def_cfa_offset 16
	popq	%r15
	.cfi_def_cfa_offset 8
	ret
	.p2align 4,,10
	.p2align 3
.L865:
	.cfi_restore_state
	testq	%r12, %r12
	jne	.L899
	movq	%r14, %rax
	jmp	.L866
	.p2align 4,,10
	.p2align 3
.L898:
	movq	8(%rsp), %rsi
	leaq	32(%rsp), %rdi
	xorl	%edx, %edx
	call	_ZNSt7__cxx1112basic_stringIcSt11char_traitsIcESaIcEE9_M_createERmm@PLT
	movq	%rax, 32(%rsp)
	movq	%rax, %rdi
	movq	24(%rsp), %rax
	movq	%rax, 48(%rsp)
.L864:
	movq	%r12, %rdx
	movq	%r13, %rsi
	call	memcpy@PLT
	movq	24(%rsp), %r12
	movq	32(%rsp), %rax
	jmp	.L866
	.p2align 4,,10
	.p2align 3
.L871:
	movq	72(%rsp), %rax
	subq	%fs:40, %rax
	jne	.L893
	movq	(%rbx), %r9
	addq	$88, %rsp
	.cfi_remember_state
	.cfi_def_cfa_offset 56
	leaq	.LC42(%rip), %r8
	xorl	%eax, %eax
	popq	%rbx
	.cfi_def_cfa_offset 48
	leaq	.LC3(%rip), %rcx
	popq	%rbp
	.cfi_def_cfa_offset 40
	movl	$91, %edx
	popq	%r12
	.cfi_def_cfa_offset 32
	leaq	.LC6(%rip), %rsi
	popq	%r13
	.cfi_def_cfa_offset 24
	movl	$1, %edi
	popq	%r14
	.cfi_def_cfa_offset 16
	popq	%r15
	.cfi_def_cfa_offset 8
	jmp	_ZN6logger3logEiPKciS1_S1_z
.L897:
	.cfi_restore_state
	leaq	.LC7(%rip), %rdi
	call	_ZSt19__throw_logic_errorPKc@PLT
.L899:
	movq	%r14, %rdi
	jmp	.L864
.L893:
	call	__stack_chk_fail@PLT
	.cfi_endproc
.LFE4731:
	.size	_ZN11ImguiWindow13removeElementERKNSt7__cxx1112basic_stringIcSt11char_traitsIcESaIcEEE, .-_ZN11ImguiWindow13removeElementERKNSt7__cxx1112basic_stringIcSt11char_traitsIcESaIcEEE
	.section	.text.unlikely
	.align 2
.LCOLDB43:
	.text
.LHOTB43:
	.align 2
	.p2align 4
	.globl	_ZN12ImguiElement8changeIDERKNSt7__cxx1112basic_stringIcSt11char_traitsIcESaIcEEE
	.type	_ZN12ImguiElement8changeIDERKNSt7__cxx1112basic_stringIcSt11char_traitsIcESaIcEEE, @function
_ZN12ImguiElement8changeIDERKNSt7__cxx1112basic_stringIcSt11char_traitsIcESaIcEEE:
.LFB4736:
	.cfi_startproc
	.cfi_personality 0x9b,DW.ref.__gxx_personality_v0
	.cfi_lsda 0x1b,.LLSDA4736
	pushq	%r15
	.cfi_def_cfa_offset 16
	.cfi_offset 15, -16
	pushq	%r14
	.cfi_def_cfa_offset 24
	.cfi_offset 14, -24
	pushq	%r13
	.cfi_def_cfa_offset 32
	.cfi_offset 13, -32
	pushq	%r12
	.cfi_def_cfa_offset 40
	.cfi_offset 12, -40
	pushq	%rbp
	.cfi_def_cfa_offset 48
	.cfi_offset 6, -48
	movq	%rsi, %rbp
	pushq	%rbx
	.cfi_def_cfa_offset 56
	.cfi_offset 3, -56
	subq	$72, %rsp
	.cfi_def_cfa_offset 128
	movq	8(%rsi), %rcx
	movq	%rdi, 8(%rsp)
	leaq	32(%rsp), %r14
	movq	%fs:40, %rax
	movq	%rax, 56(%rsp)
	xorl	%eax, %eax
	movq	%r14, 16(%rsp)
	movq	$0, 24(%rsp)
	movb	$0, 32(%rsp)
	testq	%rcx, %rcx
	je	.L901
	movq	(%rsi), %rdx
	xorl	%ebx, %ebx
	jmp	.L914
	.p2align 4,,10
	.p2align 3
.L902:
	leal	1(%rbx), %eax
	movq	%rax, %rbx
	cmpq	%rcx, %rax
	jnb	.L901
.L914:
	cmpb	$35, (%rdx,%rax)
	jne	.L902
	leal	1(%rbx), %eax
	cmpq	%rax, %rcx
	jbe	.L901
	movl	$1, %ecx
	addl	$2, %ebx
	movl	$1, %r12d
	cmpl	$1, %ecx
	jne	.L907
.L945:
	cmpl	$2, %r12d
	jg	.L907
	cmpb	$35, (%rdx,%rax)
	je	.L942
.L907:
	movzbl	(%rdx,%rax), %eax
	movq	24(%rsp), %r13
	movl	$15, %edx
	movb	%al, 7(%rsp)
	movq	16(%rsp), %rax
	leaq	1(%r13), %r15
	cmpq	%r14, %rax
	cmovne	32(%rsp), %rdx
	cmpq	%rdx, %r15
	ja	.L943
.L913:
	movzbl	7(%rsp), %esi
	movb	%sil, (%rax,%r13)
	movq	16(%rsp), %rax
	movq	%r15, 24(%rsp)
	movb	$0, 1(%rax,%r13)
	movl	%ebx, %eax
	cmpq	8(%rbp), %rax
	jnb	.L944
	movq	0(%rbp), %rdx
	movl	$2, %ecx
.L908:
	addl	$1, %ebx
	cmpl	$1, %ecx
	je	.L945
	jmp	.L907
	.p2align 4,,10
	.p2align 3
.L901:
	movq	8(%rsp), %rdi
	movq	%rbp, %rsi
	addq	$8, %rdi
.LEHB9:
	call	_ZNSt7__cxx1112basic_stringIcSt11char_traitsIcESaIcEE9_M_assignERKS4_@PLT
.L915:
	movq	16(%rsp), %rdi
	cmpq	%r14, %rdi
	je	.L900
	movq	32(%rsp), %rax
	leaq	1(%rax), %rsi
	call	_ZdlPvm@PLT
.L900:
	movq	56(%rsp), %rax
	subq	%fs:40, %rax
	jne	.L946
	addq	$72, %rsp
	.cfi_remember_state
	.cfi_def_cfa_offset 56
	popq	%rbx
	.cfi_def_cfa_offset 48
	popq	%rbp
	.cfi_def_cfa_offset 40
	popq	%r12
	.cfi_def_cfa_offset 32
	popq	%r13
	.cfi_def_cfa_offset 24
	popq	%r14
	.cfi_def_cfa_offset 16
	popq	%r15
	.cfi_def_cfa_offset 8
	ret
	.p2align 4,,10
	.p2align 3
.L942:
	.cfi_restore_state
	addl	$1, %r12d
	movl	%ebx, %eax
	cmpq	8(%rbp), %rax
	jnb	.L901
	movl	$1, %ecx
	jmp	.L908
	.p2align 4,,10
	.p2align 3
.L943:
	leaq	16(%rsp), %rdi
	movl	$1, %r8d
	xorl	%ecx, %ecx
	xorl	%edx, %edx
	movq	%r13, %rsi
	call	_ZNSt7__cxx1112basic_stringIcSt11char_traitsIcESaIcEE9_M_mutateEmmPKcm@PLT
	movq	16(%rsp), %rax
	jmp	.L913
	.p2align 4,,10
	.p2align 3
.L944:
	movq	8(%rsp), %rdi
	leaq	16(%rsp), %rsi
	addq	$8, %rdi
	call	_ZNSt7__cxx1112basic_stringIcSt11char_traitsIcESaIcEE9_M_assignERKS4_@PLT
.LEHE9:
	jmp	.L915
.L946:
	call	__stack_chk_fail@PLT
.L925:
	movq	%rax, %rbp
	jmp	.L917
	.section	.gcc_except_table
.LLSDA4736:
	.byte	0xff
	.byte	0xff
	.byte	0x1
	.uleb128 .LLSDACSE4736-.LLSDACSB4736
.LLSDACSB4736:
	.uleb128 .LEHB9-.LFB4736
	.uleb128 .LEHE9-.LEHB9
	.uleb128 .L925-.LFB4736
	.uleb128 0
.LLSDACSE4736:
	.text
	.cfi_endproc
	.section	.text.unlikely
	.cfi_startproc
	.cfi_personality 0x9b,DW.ref.__gxx_personality_v0
	.cfi_lsda 0x1b,.LLSDAC4736
	.type	_ZN12ImguiElement8changeIDERKNSt7__cxx1112basic_stringIcSt11char_traitsIcESaIcEEE.cold, @function
_ZN12ImguiElement8changeIDERKNSt7__cxx1112basic_stringIcSt11char_traitsIcESaIcEEE.cold:
.LFSB4736:
.L917:
	.cfi_def_cfa_offset 128
	.cfi_offset 3, -56
	.cfi_offset 6, -48
	.cfi_offset 12, -40
	.cfi_offset 13, -32
	.cfi_offset 14, -24
	.cfi_offset 15, -16
	movq	16(%rsp), %rdi
	cmpq	%r14, %rdi
	je	.L918
	movq	32(%rsp), %rax
	leaq	1(%rax), %rsi
	call	_ZdlPvm@PLT
.L918:
	movq	%rbp, %rdi
.LEHB10:
	call	_Unwind_Resume@PLT
.LEHE10:
	.cfi_endproc
.LFE4736:
	.section	.gcc_except_table
.LLSDAC4736:
	.byte	0xff
	.byte	0xff
	.byte	0x1
	.uleb128 .LLSDACSEC4736-.LLSDACSBC4736
.LLSDACSBC4736:
	.uleb128 .LEHB10-.LCOLDB43
	.uleb128 .LEHE10-.LEHB10
	.uleb128 0
	.uleb128 0
.LLSDACSEC4736:
	.section	.text.unlikely
	.text
	.size	_ZN12ImguiElement8changeIDERKNSt7__cxx1112basic_stringIcSt11char_traitsIcESaIcEEE, .-_ZN12ImguiElement8changeIDERKNSt7__cxx1112basic_stringIcSt11char_traitsIcESaIcEEE
	.section	.text.unlikely
	.size	_ZN12ImguiElement8changeIDERKNSt7__cxx1112basic_stringIcSt11char_traitsIcESaIcEEE.cold, .-_ZN12ImguiElement8changeIDERKNSt7__cxx1112basic_stringIcSt11char_traitsIcESaIcEEE.cold
.LCOLDE43:
	.text
.LHOTE43:
	.section	.text.unlikely
	.align 2
.LCOLDB44:
	.text
.LHOTB44:
	.align 2
	.p2align 4
	.globl	_ZN12ImguiElementC2ERKNSt7__cxx1112basic_stringIcSt11char_traitsIcESaIcEEE
	.type	_ZN12ImguiElementC2ERKNSt7__cxx1112basic_stringIcSt11char_traitsIcESaIcEEE, @function
_ZN12ImguiElementC2ERKNSt7__cxx1112basic_stringIcSt11char_traitsIcESaIcEEE:
.LFB4734:
	.cfi_startproc
	.cfi_personality 0x9b,DW.ref.__gxx_personality_v0
	.cfi_lsda 0x1b,.LLSDA4734
	pushq	%r12
	.cfi_def_cfa_offset 16
	.cfi_offset 12, -16
	leaq	16+_ZTV12ImguiElement(%rip), %rax
	pushq	%rbp
	.cfi_def_cfa_offset 24
	.cfi_offset 6, -24
	leaq	24(%rdi), %rbp
	pushq	%rbx
	.cfi_def_cfa_offset 32
	.cfi_offset 3, -32
	movq	%rdi, %rbx
	movq	%rax, (%rdi)
	movq	%rbp, 8(%rdi)
	movq	$0, 16(%rdi)
	movb	$0, 24(%rdi)
.LEHB11:
	call	_ZN12ImguiElement8changeIDERKNSt7__cxx1112basic_stringIcSt11char_traitsIcESaIcEEE
.LEHE11:
	popq	%rbx
	.cfi_remember_state
	.cfi_def_cfa_offset 24
	popq	%rbp
	.cfi_def_cfa_offset 16
	popq	%r12
	.cfi_def_cfa_offset 8
	ret
.L950:
	.cfi_restore_state
	movq	%rax, %r12
	jmp	.L948
	.section	.gcc_except_table
.LLSDA4734:
	.byte	0xff
	.byte	0xff
	.byte	0x1
	.uleb128 .LLSDACSE4734-.LLSDACSB4734
.LLSDACSB4734:
	.uleb128 .LEHB11-.LFB4734
	.uleb128 .LEHE11-.LEHB11
	.uleb128 .L950-.LFB4734
	.uleb128 0
.LLSDACSE4734:
	.text
	.cfi_endproc
	.section	.text.unlikely
	.cfi_startproc
	.cfi_personality 0x9b,DW.ref.__gxx_personality_v0
	.cfi_lsda 0x1b,.LLSDAC4734
	.type	_ZN12ImguiElementC2ERKNSt7__cxx1112basic_stringIcSt11char_traitsIcESaIcEEE.cold, @function
_ZN12ImguiElementC2ERKNSt7__cxx1112basic_stringIcSt11char_traitsIcESaIcEEE.cold:
.LFSB4734:
.L948:
	.cfi_def_cfa_offset 32
	.cfi_offset 3, -32
	.cfi_offset 6, -24
	.cfi_offset 12, -16
	movq	8(%rbx), %rdi
	cmpq	%rdi, %rbp
	je	.L949
	movq	24(%rbx), %rsi
	addq	$1, %rsi
	call	_ZdlPvm@PLT
.L949:
	movq	%r12, %rdi
.LEHB12:
	call	_Unwind_Resume@PLT
.LEHE12:
	.cfi_endproc
.LFE4734:
	.section	.gcc_except_table
.LLSDAC4734:
	.byte	0xff
	.byte	0xff
	.byte	0x1
	.uleb128 .LLSDACSEC4734-.LLSDACSBC4734
.LLSDACSBC4734:
	.uleb128 .LEHB12-.LCOLDB44
	.uleb128 .LEHE12-.LEHB12
	.uleb128 0
	.uleb128 0
.LLSDACSEC4734:
	.section	.text.unlikely
	.text
	.size	_ZN12ImguiElementC2ERKNSt7__cxx1112basic_stringIcSt11char_traitsIcESaIcEEE, .-_ZN12ImguiElementC2ERKNSt7__cxx1112basic_stringIcSt11char_traitsIcESaIcEEE
	.section	.text.unlikely
	.size	_ZN12ImguiElementC2ERKNSt7__cxx1112basic_stringIcSt11char_traitsIcESaIcEEE.cold, .-_ZN12ImguiElementC2ERKNSt7__cxx1112basic_stringIcSt11char_traitsIcESaIcEEE.cold
.LCOLDE44:
	.text
.LHOTE44:
	.globl	_ZN12ImguiElementC1ERKNSt7__cxx1112basic_stringIcSt11char_traitsIcESaIcEEE
	.set	_ZN12ImguiElementC1ERKNSt7__cxx1112basic_stringIcSt11char_traitsIcESaIcEEE,_ZN12ImguiElementC2ERKNSt7__cxx1112basic_stringIcSt11char_traitsIcESaIcEEE
	.section	.rodata.str1.1
.LC45:
	.string	"Position: ("
.LC46:
	.string	"basic_string::append"
.LC47:
	.string	", "
.LC48:
	.string	")"
.LC49:
	.string	"Orentation: ("
.LC50:
	.string	"Up: ("
	.section	.text.unlikely
	.align 2
.LCOLDB51:
	.text
.LHOTB51:
	.align 2
	.p2align 4
	.globl	_ZN16CameraInfoWindow5shoutEv
	.type	_ZN16CameraInfoWindow5shoutEv, @function
_ZN16CameraInfoWindow5shoutEv:
.LFB4769:
	.cfi_startproc
	.cfi_personality 0x9b,DW.ref.__gxx_personality_v0
	.cfi_lsda 0x1b,.LLSDA4769
	pushq	%r15
	.cfi_def_cfa_offset 16
	.cfi_offset 15, -16
	pxor	%xmm0, %xmm0
	movl	$58, %edx
	pushq	%r14
	.cfi_def_cfa_offset 24
	.cfi_offset 14, -24
	pushq	%r13
	.cfi_def_cfa_offset 32
	.cfi_offset 13, -32
	pushq	%r12
	.cfi_def_cfa_offset 40
	.cfi_offset 12, -40
	leaq	.LC8(%rip), %r12
	pushq	%rbp
	.cfi_def_cfa_offset 48
	.cfi_offset 6, -48
	movq	%r12, %rcx
	pushq	%rbx
	.cfi_def_cfa_offset 56
	.cfi_offset 3, -56
	movq	%rdi, %rbx
	subq	$440, %rsp
	.cfi_def_cfa_offset 496
	movq	vsnprintf@GOTPCREL(%rip), %rbp
	movq	%fs:40, %rax
	movq	%rax, 424(%rsp)
	movq	64(%rdi), %rax
	leaq	320(%rsp), %rdi
	movq	%rbp, %rsi
	movq	%rdi, 96(%rsp)
	movq	%rax, 104(%rsp)
	movq	88(%rbx), %rax
	cvtss2sd	120(%rax), %xmm0
	movl	$1, %eax
.LEHB13:
	call	_ZN9__gnu_cxx12__to_xstringINSt7__cxx1112basic_stringIcSt11char_traitsIcESaIcEEEcEET_PFiPT0_mPKS8_P13__va_list_tagEmSB_z.constprop.0
.LEHE13:
	movq	88(%rbx), %rax
	pxor	%xmm0, %xmm0
	movq	%r12, %rcx
	leaq	224(%rsp), %rdi
	movl	$58, %edx
	movq	%rbp, %rsi
	cvtss2sd	116(%rax), %xmm0
	movl	$1, %eax
	movq	%rdi, 88(%rsp)
.LEHB14:
	call	_ZN9__gnu_cxx12__to_xstringINSt7__cxx1112basic_stringIcSt11char_traitsIcESaIcEEEcEET_PFiPT0_mPKS8_P13__va_list_tagEmSB_z.constprop.0
.LEHE14:
	movq	88(%rbx), %rax
	pxor	%xmm0, %xmm0
	movq	%r12, %rcx
	movl	$58, %edx
	leaq	128(%rsp), %r14
	movq	%rbp, %rsi
	cvtss2sd	112(%rax), %xmm0
	movq	%r14, %rdi
	movl	$1, %eax
.LEHB15:
	call	_ZN9__gnu_cxx12__to_xstringINSt7__cxx1112basic_stringIcSt11char_traitsIcESaIcEEEcEET_PFiPT0_mPKS8_P13__va_list_tagEmSB_z.constprop.0
.LEHE15:
	movl	$11, %r8d
	xorl	%edx, %edx
	xorl	%esi, %esi
	movq	%r14, %rdi
	leaq	.LC45(%rip), %rcx
.LEHB16:
	call	_ZNSt7__cxx1112basic_stringIcSt11char_traitsIcESaIcEE10_M_replaceEmmPKcm@PLT
.LEHE16:
	leaq	176(%rsp), %rsi
	leaq	16(%rax), %rdx
	movq	%rsi, 160(%rsp)
	movq	(%rax), %rcx
	movq	%rsi, 64(%rsp)
	cmpq	%rdx, %rcx
	je	.L1187
	movq	%rcx, 160(%rsp)
	movq	16(%rax), %rcx
	movq	%rcx, 176(%rsp)
.L955:
	movq	8(%rax), %rcx
	movq	%rcx, 168(%rsp)
	movq	$0, 8(%rax)
	movb	$0, 16(%rax)
	movq	%rdx, (%rax)
	movabsq	$4611686018427387903, %rax
	subq	168(%rsp), %rax
	cmpq	$1, %rax
	jbe	.L1188
	leaq	160(%rsp), %rax
	leaq	.LC47(%rip), %r15
	movl	$2, %edx
	movq	%r15, %rsi
	movq	%rax, %rdi
	movq	%rax, 112(%rsp)
.LEHB17:
	call	_ZNSt7__cxx1112basic_stringIcSt11char_traitsIcESaIcEE9_M_appendEPKcm@PLT
.LEHE17:
	leaq	208(%rsp), %rdx
	movq	%rdx, 192(%rsp)
	movq	(%rax), %rcx
	movq	%rdx, 8(%rsp)
	leaq	16(%rax), %rdx
	cmpq	%rdx, %rcx
	je	.L1189
	movq	%rcx, 192(%rsp)
	movq	16(%rax), %rcx
	movq	%rcx, 208(%rsp)
.L958:
	movq	8(%rax), %rcx
	movq	%rcx, 200(%rsp)
	movb	$0, 16(%rax)
	movq	%rdx, (%rax)
	movq	192(%rsp), %r9
	movq	$0, 8(%rax)
	movl	$15, %eax
	movq	200(%rsp), %r8
	movq	232(%rsp), %rdx
	cmpq	8(%rsp), %r9
	movq	%rax, %rdi
	cmovne	208(%rsp), %rdi
	movq	224(%rsp), %rsi
	leaq	(%r8,%rdx), %rcx
	cmpq	%rdi, %rcx
	jbe	.L1190
	leaq	240(%rsp), %rdi
	cmpq	%rdi, %rsi
	movq	%rdi, 32(%rsp)
	cmovne	240(%rsp), %rax
	cmpq	%rax, %rcx
	jbe	.L1191
.L960:
	leaq	192(%rsp), %rdi
.LEHB18:
	call	_ZNSt7__cxx1112basic_stringIcSt11char_traitsIcESaIcEE9_M_appendEPKcm@PLT
.LEHE18:
	leaq	272(%rsp), %rsi
	leaq	16(%rax), %rdx
	movq	%rsi, 256(%rsp)
	movq	(%rax), %rcx
	movq	%rsi, 48(%rsp)
	cmpq	%rdx, %rcx
	je	.L1192
.L1171:
	movq	%rcx, 256(%rsp)
	movq	16(%rax), %rcx
	movq	%rcx, 272(%rsp)
.L968:
	movq	8(%rax), %rcx
	movq	%rcx, 264(%rsp)
	movq	$0, 8(%rax)
	movb	$0, 16(%rax)
	movq	%rdx, (%rax)
	movabsq	$4611686018427387903, %rax
	subq	264(%rsp), %rax
	cmpq	$1, %rax
	jbe	.L1193
	leaq	256(%rsp), %rax
	movl	$2, %edx
	movq	%r15, %rsi
	movq	%rax, %rdi
	movq	%rax, 72(%rsp)
.LEHB19:
	call	_ZNSt7__cxx1112basic_stringIcSt11char_traitsIcESaIcEE9_M_appendEPKcm@PLT
.LEHE19:
	leaq	304(%rsp), %rsi
	leaq	16(%rax), %rdx
	movq	%rsi, 288(%rsp)
	movq	(%rax), %rcx
	movq	%rsi, 16(%rsp)
	cmpq	%rdx, %rcx
	je	.L1194
	movq	%rcx, 288(%rsp)
	movq	16(%rax), %rcx
	movq	%rcx, 304(%rsp)
.L971:
	movq	8(%rax), %rcx
	movq	%rcx, 296(%rsp)
	movb	$0, 16(%rax)
	movq	%rdx, (%rax)
	movq	288(%rsp), %r9
	movq	$0, 8(%rax)
	movl	$15, %eax
	movq	296(%rsp), %r8
	movq	328(%rsp), %rdx
	cmpq	16(%rsp), %r9
	movq	%rax, %rdi
	cmovne	304(%rsp), %rdi
	movq	320(%rsp), %rsi
	leaq	(%r8,%rdx), %rcx
	cmpq	%rdi, %rcx
	jbe	.L1195
	leaq	336(%rsp), %rdi
	cmpq	%rdi, %rsi
	movq	%rdi, 24(%rsp)
	cmovne	336(%rsp), %rax
	cmpq	%rax, %rcx
	jbe	.L1196
.L973:
	leaq	288(%rsp), %rdi
.LEHB20:
	call	_ZNSt7__cxx1112basic_stringIcSt11char_traitsIcESaIcEE9_M_appendEPKcm@PLT
.LEHE20:
	leaq	368(%rsp), %rdx
	movq	%rdx, 352(%rsp)
	movq	(%rax), %rcx
	movq	%rdx, 56(%rsp)
	leaq	16(%rax), %rdx
	cmpq	%rdx, %rcx
	je	.L1197
.L1174:
	movq	%rcx, 352(%rsp)
	movq	16(%rax), %rcx
	movq	%rcx, 368(%rsp)
.L981:
	movq	8(%rax), %rcx
	movq	%rcx, 360(%rsp)
	movq	%rdx, (%rax)
	movq	$0, 8(%rax)
	movb	$0, 16(%rax)
	movabsq	$4611686018427387903, %rax
	cmpq	%rax, 360(%rsp)
	je	.L1198
	leaq	352(%rsp), %rax
	movl	$1, %edx
	leaq	.LC48(%rip), %rsi
	movq	%rax, %rdi
	movq	%rax, 80(%rsp)
.LEHB21:
	call	_ZNSt7__cxx1112basic_stringIcSt11char_traitsIcESaIcEE9_M_appendEPKcm@PLT
.LEHE21:
	leaq	400(%rsp), %rdx
	movq	%rdx, 384(%rsp)
	movq	(%rax), %rcx
	movq	%rdx, 40(%rsp)
	leaq	16(%rax), %rdx
	cmpq	%rdx, %rcx
	je	.L1199
	movq	%rcx, 384(%rsp)
	movq	16(%rax), %rcx
	movq	%rcx, 400(%rsp)
.L984:
	movq	8(%rax), %rcx
	leaq	384(%rsp), %r13
	movq	104(%rsp), %rdi
	movq	%r13, %rsi
	movq	%rcx, 392(%rsp)
	movq	%rdx, (%rax)
	movq	$0, 8(%rax)
	movb	$0, 16(%rax)
.LEHB22:
	call	_ZN12ImguiElement8changeIDERKNSt7__cxx1112basic_stringIcSt11char_traitsIcESaIcEEE
	movq	104(%rsp), %rdi
	movq	%r13, %rsi
	addq	$40, %rdi
	call	_ZNSt7__cxx1112basic_stringIcSt11char_traitsIcESaIcEE9_M_assignERKS4_@PLT
.LEHE22:
	movq	384(%rsp), %rdi
	cmpq	40(%rsp), %rdi
	je	.L985
	movq	400(%rsp), %rax
	leaq	1(%rax), %rsi
	call	_ZdlPvm@PLT
.L985:
	movq	352(%rsp), %rdi
	cmpq	56(%rsp), %rdi
	je	.L986
	movq	368(%rsp), %rax
	leaq	1(%rax), %rsi
	call	_ZdlPvm@PLT
.L986:
	movq	288(%rsp), %rdi
	cmpq	16(%rsp), %rdi
	je	.L987
	movq	304(%rsp), %rax
	leaq	1(%rax), %rsi
	call	_ZdlPvm@PLT
.L987:
	movq	256(%rsp), %rdi
	cmpq	48(%rsp), %rdi
	je	.L988
	movq	272(%rsp), %rax
	leaq	1(%rax), %rsi
	call	_ZdlPvm@PLT
.L988:
	movq	192(%rsp), %rdi
	cmpq	8(%rsp), %rdi
	je	.L989
	movq	208(%rsp), %rax
	leaq	1(%rax), %rsi
	call	_ZdlPvm@PLT
.L989:
	movq	160(%rsp), %rdi
	cmpq	64(%rsp), %rdi
	je	.L990
	movq	176(%rsp), %rax
	leaq	1(%rax), %rsi
	call	_ZdlPvm@PLT
.L990:
	movq	128(%rsp), %rdi
	leaq	144(%rsp), %rax
	movq	%rax, 104(%rsp)
	cmpq	%rax, %rdi
	je	.L991
	movq	144(%rsp), %rax
	leaq	1(%rax), %rsi
	call	_ZdlPvm@PLT
.L991:
	movq	224(%rsp), %rdi
	cmpq	32(%rsp), %rdi
	je	.L992
	movq	240(%rsp), %rax
	leaq	1(%rax), %rsi
	call	_ZdlPvm@PLT
.L992:
	movq	320(%rsp), %rdi
	cmpq	24(%rsp), %rdi
	je	.L993
	movq	336(%rsp), %rax
	leaq	1(%rax), %rsi
	call	_ZdlPvm@PLT
.L993:
	movq	72(%rbx), %rax
	movq	96(%rsp), %rdi
	pxor	%xmm0, %xmm0
	movq	%r12, %rcx
	movl	$58, %edx
	movq	%rbp, %rsi
	movq	%rax, 120(%rsp)
	movq	88(%rbx), %rax
	cvtss2sd	96(%rax), %xmm0
	movl	$1, %eax
.LEHB23:
	call	_ZN9__gnu_cxx12__to_xstringINSt7__cxx1112basic_stringIcSt11char_traitsIcESaIcEEEcEET_PFiPT0_mPKS8_P13__va_list_tagEmSB_z.constprop.0
.LEHE23:
	movq	88(%rbx), %rax
	pxor	%xmm0, %xmm0
	movq	%r12, %rcx
	movq	88(%rsp), %rdi
	movl	$58, %edx
	movq	%rbp, %rsi
	cvtss2sd	92(%rax), %xmm0
	movl	$1, %eax
.LEHB24:
	call	_ZN9__gnu_cxx12__to_xstringINSt7__cxx1112basic_stringIcSt11char_traitsIcESaIcEEEcEET_PFiPT0_mPKS8_P13__va_list_tagEmSB_z.constprop.0
.LEHE24:
	movq	88(%rbx), %rax
	pxor	%xmm0, %xmm0
	movq	%r12, %rcx
	movl	$58, %edx
	movq	%rbp, %rsi
	movq	%r14, %rdi
	cvtss2sd	88(%rax), %xmm0
	movl	$1, %eax
.LEHB25:
	call	_ZN9__gnu_cxx12__to_xstringINSt7__cxx1112basic_stringIcSt11char_traitsIcESaIcEEEcEET_PFiPT0_mPKS8_P13__va_list_tagEmSB_z.constprop.0
.LEHE25:
	movl	$13, %r8d
	xorl	%edx, %edx
	xorl	%esi, %esi
	movq	%r14, %rdi
	leaq	.LC49(%rip), %rcx
.LEHB26:
	call	_ZNSt7__cxx1112basic_stringIcSt11char_traitsIcESaIcEE10_M_replaceEmmPKcm@PLT
.LEHE26:
	movq	64(%rsp), %rsi
	leaq	16(%rax), %rdx
	movq	%rsi, 160(%rsp)
	movq	(%rax), %rcx
	cmpq	%rdx, %rcx
	je	.L1200
	movq	%rcx, 160(%rsp)
	movq	16(%rax), %rcx
	movq	%rcx, 176(%rsp)
.L995:
	movq	8(%rax), %rcx
	movq	%rcx, 168(%rsp)
	movq	$0, 8(%rax)
	movb	$0, 16(%rax)
	movq	%rdx, (%rax)
	movabsq	$4611686018427387903, %rax
	subq	168(%rsp), %rax
	cmpq	$1, %rax
	jbe	.L1201
	movq	112(%rsp), %rdi
	movl	$2, %edx
	movq	%r15, %rsi
.LEHB27:
	call	_ZNSt7__cxx1112basic_stringIcSt11char_traitsIcESaIcEE9_M_appendEPKcm@PLT
.LEHE27:
	movq	8(%rsp), %rdx
	movq	%rdx, 192(%rsp)
	movq	(%rax), %rcx
	leaq	16(%rax), %rdx
	cmpq	%rdx, %rcx
	je	.L1202
	movq	%rcx, 192(%rsp)
	movq	16(%rax), %rcx
	movq	%rcx, 208(%rsp)
.L998:
	movq	8(%rax), %rcx
	movq	%rcx, 200(%rsp)
	movb	$0, 16(%rax)
	movq	%rdx, (%rax)
	movq	192(%rsp), %r9
	movq	$0, 8(%rax)
	movl	$15, %eax
	movq	200(%rsp), %r8
	movq	232(%rsp), %rdx
	cmpq	8(%rsp), %r9
	movq	%rax, %rdi
	cmovne	208(%rsp), %rdi
	movq	224(%rsp), %rsi
	leaq	(%r8,%rdx), %rcx
	cmpq	%rdi, %rcx
	jbe	.L1000
	cmpq	32(%rsp), %rsi
	cmovne	240(%rsp), %rax
	cmpq	%rax, %rcx
	jbe	.L1203
.L1000:
	leaq	192(%rsp), %rdi
.LEHB28:
	call	_ZNSt7__cxx1112basic_stringIcSt11char_traitsIcESaIcEE9_M_appendEPKcm@PLT
.LEHE28:
	movq	48(%rsp), %rdx
	movq	%rdx, 256(%rsp)
	movq	(%rax), %rcx
	leaq	16(%rax), %rdx
	cmpq	%rdx, %rcx
	je	.L1204
.L1176:
	movq	%rcx, 256(%rsp)
	movq	16(%rax), %rcx
	movq	%rcx, 272(%rsp)
.L1008:
	movq	8(%rax), %rcx
	movq	%rcx, 264(%rsp)
	movq	$0, 8(%rax)
	movb	$0, 16(%rax)
	movq	%rdx, (%rax)
	movabsq	$4611686018427387903, %rax
	subq	264(%rsp), %rax
	cmpq	$1, %rax
	jbe	.L1205
	movq	72(%rsp), %rdi
	movl	$2, %edx
	movq	%r15, %rsi
.LEHB29:
	call	_ZNSt7__cxx1112basic_stringIcSt11char_traitsIcESaIcEE9_M_appendEPKcm@PLT
.LEHE29:
	movq	16(%rsp), %rdx
	movq	%rdx, 288(%rsp)
	movq	(%rax), %rcx
	leaq	16(%rax), %rdx
	cmpq	%rdx, %rcx
	je	.L1206
	movq	%rcx, 288(%rsp)
	movq	16(%rax), %rcx
	movq	%rcx, 304(%rsp)
.L1011:
	movq	8(%rax), %rcx
	movq	%rcx, 296(%rsp)
	movb	$0, 16(%rax)
	movq	%rdx, (%rax)
	movq	288(%rsp), %r9
	movq	$0, 8(%rax)
	movl	$15, %eax
	movq	296(%rsp), %r8
	movq	328(%rsp), %rdx
	cmpq	16(%rsp), %r9
	movq	%rax, %rdi
	cmovne	304(%rsp), %rdi
	movq	320(%rsp), %rsi
	leaq	(%r8,%rdx), %rcx
	cmpq	%rdi, %rcx
	jbe	.L1013
	cmpq	24(%rsp), %rsi
	cmovne	336(%rsp), %rax
	cmpq	%rax, %rcx
	jbe	.L1207
.L1013:
	leaq	288(%rsp), %rdi
.LEHB30:
	call	_ZNSt7__cxx1112basic_stringIcSt11char_traitsIcESaIcEE9_M_appendEPKcm@PLT
.LEHE30:
	movq	56(%rsp), %rsi
	leaq	16(%rax), %rdx
	movq	%rsi, 352(%rsp)
	movq	(%rax), %rcx
	cmpq	%rdx, %rcx
	je	.L1208
.L1178:
	movq	%rcx, 352(%rsp)
	movq	16(%rax), %rcx
	movq	%rcx, 368(%rsp)
.L1021:
	movq	8(%rax), %rcx
	movq	%rcx, 360(%rsp)
	movq	%rdx, (%rax)
	movq	$0, 8(%rax)
	movb	$0, 16(%rax)
	movabsq	$4611686018427387903, %rax
	cmpq	%rax, 360(%rsp)
	je	.L1209
	movq	80(%rsp), %rdi
	movl	$1, %edx
	leaq	.LC48(%rip), %rsi
.LEHB31:
	call	_ZNSt7__cxx1112basic_stringIcSt11char_traitsIcESaIcEE9_M_appendEPKcm@PLT
.LEHE31:
	movq	40(%rsp), %rdx
	movq	%rdx, 384(%rsp)
	movq	(%rax), %rcx
	leaq	16(%rax), %rdx
	cmpq	%rdx, %rcx
	je	.L1210
	movq	%rcx, 384(%rsp)
	movq	16(%rax), %rcx
	movq	%rcx, 400(%rsp)
.L1024:
	movq	8(%rax), %rcx
	movq	120(%rsp), %r14
	movq	%r13, %rsi
	movq	%rcx, 392(%rsp)
	movq	%r14, %rdi
	movq	%rdx, (%rax)
	movq	$0, 8(%rax)
	movb	$0, 16(%rax)
.LEHB32:
	call	_ZN12ImguiElement8changeIDERKNSt7__cxx1112basic_stringIcSt11char_traitsIcESaIcEEE
	movq	%r14, %rdi
	movq	%r13, %rsi
	addq	$40, %rdi
	call	_ZNSt7__cxx1112basic_stringIcSt11char_traitsIcESaIcEE9_M_assignERKS4_@PLT
.LEHE32:
	movq	384(%rsp), %rdi
	cmpq	40(%rsp), %rdi
	je	.L1025
	movq	400(%rsp), %rax
	leaq	1(%rax), %rsi
	call	_ZdlPvm@PLT
.L1025:
	movq	352(%rsp), %rdi
	cmpq	56(%rsp), %rdi
	je	.L1026
	movq	368(%rsp), %rax
	leaq	1(%rax), %rsi
	call	_ZdlPvm@PLT
.L1026:
	movq	288(%rsp), %rdi
	cmpq	16(%rsp), %rdi
	je	.L1027
	movq	304(%rsp), %rax
	leaq	1(%rax), %rsi
	call	_ZdlPvm@PLT
.L1027:
	movq	256(%rsp), %rdi
	cmpq	48(%rsp), %rdi
	je	.L1028
	movq	272(%rsp), %rax
	leaq	1(%rax), %rsi
	call	_ZdlPvm@PLT
.L1028:
	movq	192(%rsp), %rdi
	cmpq	8(%rsp), %rdi
	je	.L1029
	movq	208(%rsp), %rax
	leaq	1(%rax), %rsi
	call	_ZdlPvm@PLT
.L1029:
	movq	160(%rsp), %rdi
	cmpq	64(%rsp), %rdi
	je	.L1030
	movq	176(%rsp), %rax
	leaq	1(%rax), %rsi
	call	_ZdlPvm@PLT
.L1030:
	movq	128(%rsp), %rdi
	cmpq	104(%rsp), %rdi
	je	.L1031
	movq	144(%rsp), %rax
	leaq	1(%rax), %rsi
	call	_ZdlPvm@PLT
.L1031:
	movq	224(%rsp), %rdi
	cmpq	32(%rsp), %rdi
	je	.L1032
	movq	240(%rsp), %rax
	leaq	1(%rax), %rsi
	call	_ZdlPvm@PLT
.L1032:
	movq	320(%rsp), %rdi
	cmpq	24(%rsp), %rdi
	je	.L1033
	movq	336(%rsp), %rax
	leaq	1(%rax), %rsi
	call	_ZdlPvm@PLT
.L1033:
	movq	88(%rbx), %rax
	movq	80(%rsp), %rdi
	pxor	%xmm0, %xmm0
	movq	%r12, %rcx
	movl	$58, %edx
	movq	%rbp, %rsi
	movq	80(%rbx), %r14
	cvtss2sd	108(%rax), %xmm0
	movl	$1, %eax
.LEHB33:
	call	_ZN9__gnu_cxx12__to_xstringINSt7__cxx1112basic_stringIcSt11char_traitsIcESaIcEEEcEET_PFiPT0_mPKS8_P13__va_list_tagEmSB_z.constprop.0
.LEHE33:
	movq	88(%rbx), %rax
	pxor	%xmm0, %xmm0
	movq	%r12, %rcx
	movq	72(%rsp), %rdi
	movl	$58, %edx
	movq	%rbp, %rsi
	cvtss2sd	104(%rax), %xmm0
	movl	$1, %eax
.LEHB34:
	call	_ZN9__gnu_cxx12__to_xstringINSt7__cxx1112basic_stringIcSt11char_traitsIcESaIcEEEcEET_PFiPT0_mPKS8_P13__va_list_tagEmSB_z.constprop.0
.LEHE34:
	movq	88(%rbx), %rax
	movq	%rbp, %rsi
	movq	112(%rsp), %rbp
	pxor	%xmm0, %xmm0
	movq	%r12, %rcx
	movl	$58, %edx
	cvtss2sd	100(%rax), %xmm0
	movq	%rbp, %rdi
	movl	$1, %eax
.LEHB35:
	call	_ZN9__gnu_cxx12__to_xstringINSt7__cxx1112basic_stringIcSt11char_traitsIcESaIcEEEcEET_PFiPT0_mPKS8_P13__va_list_tagEmSB_z.constprop.0
.LEHE35:
	movl	$5, %r8d
	xorl	%edx, %edx
	xorl	%esi, %esi
	movq	%rbp, %rdi
	leaq	.LC50(%rip), %rcx
.LEHB36:
	call	_ZNSt7__cxx1112basic_stringIcSt11char_traitsIcESaIcEE10_M_replaceEmmPKcm@PLT
.LEHE36:
	movq	8(%rsp), %rsi
	leaq	16(%rax), %rdx
	movq	%rsi, 192(%rsp)
	movq	(%rax), %rcx
	cmpq	%rdx, %rcx
	je	.L1211
	movq	%rcx, 192(%rsp)
	movq	16(%rax), %rcx
	movq	%rcx, 208(%rsp)
.L1035:
	movq	8(%rax), %rcx
	movq	%rcx, 200(%rsp)
	movq	$0, 8(%rax)
	movb	$0, 16(%rax)
	movq	%rdx, (%rax)
	movabsq	$4611686018427387903, %rax
	subq	200(%rsp), %rax
	cmpq	$1, %rax
	jbe	.L1212
	leaq	192(%rsp), %rdi
	movl	$2, %edx
	movq	%r15, %rsi
.LEHB37:
	call	_ZNSt7__cxx1112basic_stringIcSt11char_traitsIcESaIcEE9_M_appendEPKcm@PLT
.LEHE37:
	movq	32(%rsp), %rdx
	movq	%rdx, 224(%rsp)
	movq	(%rax), %rcx
	leaq	16(%rax), %rdx
	cmpq	%rdx, %rcx
	je	.L1213
	movq	%rcx, 224(%rsp)
	movq	16(%rax), %rcx
	movq	%rcx, 240(%rsp)
.L1038:
	movq	8(%rax), %rcx
	movq	%rcx, 232(%rsp)
	movb	$0, 16(%rax)
	movq	%rdx, (%rax)
	movq	224(%rsp), %r9
	movq	$0, 8(%rax)
	movl	$15, %eax
	movq	232(%rsp), %r8
	movq	264(%rsp), %rdx
	cmpq	32(%rsp), %r9
	movq	%rax, %rdi
	cmovne	240(%rsp), %rdi
	movq	256(%rsp), %rsi
	leaq	(%r8,%rdx), %rcx
	cmpq	%rdi, %rcx
	jbe	.L1040
	cmpq	48(%rsp), %rsi
	cmovne	272(%rsp), %rax
	cmpq	%rax, %rcx
	jbe	.L1214
.L1040:
	movq	88(%rsp), %rdi
.LEHB38:
	call	_ZNSt7__cxx1112basic_stringIcSt11char_traitsIcESaIcEE9_M_appendEPKcm@PLT
.LEHE38:
	movq	16(%rsp), %rdx
	movq	%rdx, 288(%rsp)
	movq	(%rax), %rcx
	leaq	16(%rax), %rdx
	cmpq	%rdx, %rcx
	je	.L1215
.L1180:
	movq	%rcx, 288(%rsp)
	movq	16(%rax), %rcx
	movq	%rcx, 304(%rsp)
.L1048:
	movq	8(%rax), %rcx
	movq	%rcx, 296(%rsp)
	movq	$0, 8(%rax)
	movb	$0, 16(%rax)
	movq	%rdx, (%rax)
	movabsq	$4611686018427387903, %rax
	subq	296(%rsp), %rax
	cmpq	$1, %rax
	jbe	.L1216
	leaq	288(%rsp), %rdi
	movl	$2, %edx
	movq	%r15, %rsi
.LEHB39:
	call	_ZNSt7__cxx1112basic_stringIcSt11char_traitsIcESaIcEE9_M_appendEPKcm@PLT
.LEHE39:
	movq	24(%rsp), %rdx
	movq	%rdx, 320(%rsp)
	movq	(%rax), %rcx
	leaq	16(%rax), %rdx
	cmpq	%rdx, %rcx
	je	.L1217
	movq	%rcx, 320(%rsp)
	movq	16(%rax), %rcx
	movq	%rcx, 336(%rsp)
.L1051:
	movq	8(%rax), %rcx
	movq	%rcx, 328(%rsp)
	movb	$0, 16(%rax)
	movq	%rdx, (%rax)
	movq	320(%rsp), %r9
	movq	$0, 8(%rax)
	movl	$15, %eax
	movq	328(%rsp), %r8
	movq	360(%rsp), %rdx
	cmpq	24(%rsp), %r9
	movq	%rax, %rdi
	cmovne	336(%rsp), %rdi
	movq	352(%rsp), %rsi
	leaq	(%r8,%rdx), %rcx
	cmpq	%rdi, %rcx
	jbe	.L1053
	cmpq	56(%rsp), %rsi
	cmovne	368(%rsp), %rax
	cmpq	%rax, %rcx
	jbe	.L1218
.L1053:
	movq	96(%rsp), %rdi
.LEHB40:
	call	_ZNSt7__cxx1112basic_stringIcSt11char_traitsIcESaIcEE9_M_appendEPKcm@PLT
.LEHE40:
	movq	40(%rsp), %rsi
	leaq	16(%rax), %rdx
	movq	%rsi, 384(%rsp)
	movq	(%rax), %rcx
	cmpq	%rdx, %rcx
	je	.L1219
.L1182:
	movq	%rcx, 384(%rsp)
	movq	16(%rax), %rcx
	movq	%rcx, 400(%rsp)
.L1061:
	movq	8(%rax), %rcx
	movq	%r13, %rsi
	movq	%r14, %rdi
	movq	%rcx, 392(%rsp)
	movq	%rdx, (%rax)
	movq	$0, 8(%rax)
	movb	$0, 16(%rax)
.LEHB41:
	call	_ZN12ImguiElement8changeIDERKNSt7__cxx1112basic_stringIcSt11char_traitsIcESaIcEEE
	leaq	40(%r14), %rdi
	movq	%r13, %rsi
	call	_ZNSt7__cxx1112basic_stringIcSt11char_traitsIcESaIcEE9_M_assignERKS4_@PLT
.LEHE41:
	movq	384(%rsp), %rdi
	cmpq	40(%rsp), %rdi
	je	.L1062
	movq	400(%rsp), %rax
	leaq	1(%rax), %rsi
	call	_ZdlPvm@PLT
.L1062:
	movq	320(%rsp), %rdi
	cmpq	24(%rsp), %rdi
	je	.L1063
	movq	336(%rsp), %rax
	leaq	1(%rax), %rsi
	call	_ZdlPvm@PLT
.L1063:
	movq	288(%rsp), %rdi
	cmpq	16(%rsp), %rdi
	je	.L1064
	movq	304(%rsp), %rax
	leaq	1(%rax), %rsi
	call	_ZdlPvm@PLT
.L1064:
	movq	224(%rsp), %rdi
	cmpq	32(%rsp), %rdi
	je	.L1065
	movq	240(%rsp), %rax
	leaq	1(%rax), %rsi
	call	_ZdlPvm@PLT
.L1065:
	movq	192(%rsp), %rdi
	cmpq	8(%rsp), %rdi
	je	.L1066
	movq	208(%rsp), %rax
	leaq	1(%rax), %rsi
	call	_ZdlPvm@PLT
.L1066:
	movq	160(%rsp), %rdi
	cmpq	64(%rsp), %rdi
	je	.L1067
	movq	176(%rsp), %rax
	leaq	1(%rax), %rsi
	call	_ZdlPvm@PLT
.L1067:
	movq	256(%rsp), %rdi
	cmpq	48(%rsp), %rdi
	je	.L1068
	movq	272(%rsp), %rax
	leaq	1(%rax), %rsi
	call	_ZdlPvm@PLT
.L1068:
	movq	352(%rsp), %rdi
	cmpq	56(%rsp), %rdi
	je	.L1069
	movq	368(%rsp), %rax
	leaq	1(%rax), %rsi
	call	_ZdlPvm@PLT
.L1069:
	movq	32(%rbx), %rdi
	xorl	%edx, %edx
	xorl	%esi, %esi
.LEHB42:
	call	_ZN5ImGui5BeginEPKcPbi@PLT
	movq	16(%rbx), %rbp
	movq	8(%rbx), %rbx
	cmpq	%rbx, %rbp
	je	.L1073
	.p2align 4,,10
	.p2align 3
.L1072:
	movq	(%rbx), %rdi
	addq	$8, %rbx
	movq	(%rdi), %rax
	call	*(%rax)
	cmpq	%rbx, %rbp
	jne	.L1072
.L1073:
	movq	424(%rsp), %rax
	subq	%fs:40, %rax
	jne	.L1220
	addq	$440, %rsp
	.cfi_remember_state
	.cfi_def_cfa_offset 56
	popq	%rbx
	.cfi_def_cfa_offset 48
	popq	%rbp
	.cfi_def_cfa_offset 40
	popq	%r12
	.cfi_def_cfa_offset 32
	popq	%r13
	.cfi_def_cfa_offset 24
	popq	%r14
	.cfi_def_cfa_offset 16
	popq	%r15
	.cfi_def_cfa_offset 8
	jmp	_ZN5ImGui3EndEv@PLT
.LEHE42:
	.p2align 4,,10
	.p2align 3
.L1207:
	.cfi_restore_state
	movq	96(%rsp), %rdi
	movq	%r9, %rcx
	xorl	%edx, %edx
	xorl	%esi, %esi
.LEHB43:
	call	_ZNSt7__cxx1112basic_stringIcSt11char_traitsIcESaIcEE10_M_replaceEmmPKcm@PLT
.LEHE43:
	movq	56(%rsp), %rdx
	movq	%rdx, 352(%rsp)
	movq	(%rax), %rcx
	leaq	16(%rax), %rdx
	cmpq	%rdx, %rcx
	jne	.L1178
	movdqu	16(%rax), %xmm4
	movaps	%xmm4, 368(%rsp)
	jmp	.L1021
	.p2align 4,,10
	.p2align 3
.L1203:
	movq	88(%rsp), %rdi
	movq	%r9, %rcx
	xorl	%edx, %edx
	xorl	%esi, %esi
.LEHB44:
	call	_ZNSt7__cxx1112basic_stringIcSt11char_traitsIcESaIcEE10_M_replaceEmmPKcm@PLT
.LEHE44:
	movq	48(%rsp), %rdx
	movq	%rdx, 256(%rsp)
	movq	(%rax), %rcx
	leaq	16(%rax), %rdx
	cmpq	%rdx, %rcx
	jne	.L1176
	movdqu	16(%rax), %xmm3
	movaps	%xmm3, 272(%rsp)
	jmp	.L1008
	.p2align 4,,10
	.p2align 3
.L1196:
	movq	96(%rsp), %rdi
	movq	%r9, %rcx
	xorl	%edx, %edx
	xorl	%esi, %esi
.LEHB45:
	call	_ZNSt7__cxx1112basic_stringIcSt11char_traitsIcESaIcEE10_M_replaceEmmPKcm@PLT
.LEHE45:
	leaq	368(%rsp), %rsi
	leaq	16(%rax), %rdx
	movq	%rsi, 352(%rsp)
	movq	(%rax), %rcx
	movq	%rsi, 56(%rsp)
	cmpq	%rdx, %rcx
	jne	.L1174
	movdqu	16(%rax), %xmm2
	movaps	%xmm2, 368(%rsp)
	jmp	.L981
	.p2align 4,,10
	.p2align 3
.L1191:
	movq	88(%rsp), %rdi
	movq	%r9, %rcx
	xorl	%edx, %edx
	xorl	%esi, %esi
.LEHB46:
	call	_ZNSt7__cxx1112basic_stringIcSt11char_traitsIcESaIcEE10_M_replaceEmmPKcm@PLT
.LEHE46:
	leaq	272(%rsp), %rdx
	movq	%rdx, 256(%rsp)
	movq	(%rax), %rcx
	movq	%rdx, 48(%rsp)
	leaq	16(%rax), %rdx
	cmpq	%rdx, %rcx
	jne	.L1171
	movdqu	16(%rax), %xmm1
	movaps	%xmm1, 272(%rsp)
	jmp	.L968
	.p2align 4,,10
	.p2align 3
.L1218:
	movq	80(%rsp), %rdi
	movq	%r9, %rcx
	xorl	%edx, %edx
	xorl	%esi, %esi
.LEHB47:
	call	_ZNSt7__cxx1112basic_stringIcSt11char_traitsIcESaIcEE10_M_replaceEmmPKcm@PLT
.LEHE47:
	movq	40(%rsp), %rsi
	leaq	16(%rax), %rdx
	movq	%rsi, 384(%rsp)
	movq	(%rax), %rcx
	cmpq	%rdx, %rcx
	jne	.L1182
	movdqu	16(%rax), %xmm2
	movaps	%xmm2, 400(%rsp)
	jmp	.L1061
	.p2align 4,,10
	.p2align 3
.L1214:
	movq	72(%rsp), %rdi
	movq	%r9, %rcx
	xorl	%edx, %edx
	xorl	%esi, %esi
.LEHB48:
	call	_ZNSt7__cxx1112basic_stringIcSt11char_traitsIcESaIcEE10_M_replaceEmmPKcm@PLT
.LEHE48:
	movq	16(%rsp), %rdx
	movq	%rdx, 288(%rsp)
	movq	(%rax), %rcx
	leaq	16(%rax), %rdx
	cmpq	%rdx, %rcx
	jne	.L1180
	movdqu	16(%rax), %xmm1
	movaps	%xmm1, 304(%rsp)
	jmp	.L1048
	.p2align 4,,10
	.p2align 3
.L1195:
	leaq	336(%rsp), %rax
	movq	%rax, 24(%rsp)
	jmp	.L973
	.p2align 4,,10
	.p2align 3
.L1190:
	leaq	240(%rsp), %rax
	movq	%rax, 32(%rsp)
	jmp	.L960
	.p2align 4,,10
	.p2align 3
.L1194:
	movdqu	16(%rax), %xmm3
	movaps	%xmm3, 304(%rsp)
	jmp	.L971
	.p2align 4,,10
	.p2align 3
.L1199:
	movdqu	16(%rax), %xmm4
	movaps	%xmm4, 400(%rsp)
	jmp	.L984
	.p2align 4,,10
	.p2align 3
.L1189:
	movdqu	16(%rax), %xmm2
	movaps	%xmm2, 208(%rsp)
	jmp	.L958
	.p2align 4,,10
	.p2align 3
.L1187:
	movdqu	16(%rax), %xmm1
	movaps	%xmm1, 176(%rsp)
	jmp	.L955
	.p2align 4,,10
	.p2align 3
.L1202:
	movdqu	16(%rax), %xmm6
	movaps	%xmm6, 208(%rsp)
	jmp	.L998
	.p2align 4,,10
	.p2align 3
.L1200:
	movdqu	16(%rax), %xmm5
	movaps	%xmm5, 176(%rsp)
	jmp	.L995
	.p2align 4,,10
	.p2align 3
.L1206:
	movdqu	16(%rax), %xmm7
	movaps	%xmm7, 304(%rsp)
	jmp	.L1011
	.p2align 4,,10
	.p2align 3
.L1217:
	movdqu	16(%rax), %xmm4
	movaps	%xmm4, 336(%rsp)
	jmp	.L1051
	.p2align 4,,10
	.p2align 3
.L1213:
	movdqu	16(%rax), %xmm3
	movaps	%xmm3, 240(%rsp)
	jmp	.L1038
	.p2align 4,,10
	.p2align 3
.L1211:
	movdqu	16(%rax), %xmm2
	movaps	%xmm2, 208(%rsp)
	jmp	.L1035
	.p2align 4,,10
	.p2align 3
.L1210:
	movdqu	16(%rax), %xmm1
	movaps	%xmm1, 400(%rsp)
	jmp	.L1024
	.p2align 4,,10
	.p2align 3
.L1197:
	movdqu	16(%rax), %xmm6
	movaps	%xmm6, 368(%rsp)
	jmp	.L981
	.p2align 4,,10
	.p2align 3
.L1192:
	movdqu	16(%rax), %xmm5
	movaps	%xmm5, 272(%rsp)
	jmp	.L968
	.p2align 4,,10
	.p2align 3
.L1219:
	movdqu	16(%rax), %xmm7
	movaps	%xmm7, 400(%rsp)
	jmp	.L1061
	.p2align 4,,10
	.p2align 3
.L1215:
	movdqu	16(%rax), %xmm6
	movaps	%xmm6, 304(%rsp)
	jmp	.L1048
	.p2align 4,,10
	.p2align 3
.L1208:
	movdqu	16(%rax), %xmm5
	movaps	%xmm5, 368(%rsp)
	jmp	.L1021
	.p2align 4,,10
	.p2align 3
.L1204:
	movdqu	16(%rax), %xmm7
	movaps	%xmm7, 272(%rsp)
	jmp	.L1008
.L1198:
	leaq	.LC46(%rip), %rdi
.LEHB49:
	call	_ZSt20__throw_length_errorPKc@PLT
.LEHE49:
.L1201:
	leaq	.LC46(%rip), %rdi
.LEHB50:
	call	_ZSt20__throw_length_errorPKc@PLT
.LEHE50:
.L1193:
	leaq	.LC46(%rip), %rdi
.LEHB51:
	call	_ZSt20__throw_length_errorPKc@PLT
.LEHE51:
.L1220:
	call	__stack_chk_fail@PLT
.L1212:
	leaq	.LC46(%rip), %rdi
.LEHB52:
	call	_ZSt20__throw_length_errorPKc@PLT
.LEHE52:
.L1209:
	leaq	.LC46(%rip), %rdi
.LEHB53:
	call	_ZSt20__throw_length_errorPKc@PLT
.LEHE53:
.L1216:
	leaq	.LC46(%rip), %rdi
.LEHB54:
	call	_ZSt20__throw_length_errorPKc@PLT
.LEHE54:
.L1205:
	leaq	.LC46(%rip), %rdi
.LEHB55:
	call	_ZSt20__throw_length_errorPKc@PLT
.LEHE55:
.L1188:
	leaq	.LC46(%rip), %rdi
.LEHB56:
	call	_ZSt20__throw_length_errorPKc@PLT
.LEHE56:
.L1155:
	movq	%rax, %rbp
	jmp	.L1094
.L1161:
	movq	%rax, %rbp
	jmp	.L1116
.L1157:
	movq	%rax, %rbp
	jmp	.L1124
.L1160:
	movq	%rax, %rbp
	jmp	.L1118
.L1153:
	movq	%rax, %rbp
	jmp	.L1098
.L1150:
	movq	%rax, %rbp
	jmp	.L1104
.L1162:
	movq	%rax, %rbp
	jmp	.L1114
.L1139:
	movq	%rax, %rbp
	leaq	336(%rsp), %rax
	movq	%rax, 24(%rsp)
	jmp	.L1108
.L1141:
	movq	%rax, %rbp
	leaq	240(%rsp), %rax
	movq	%rax, 32(%rsp)
	leaq	336(%rsp), %rax
	movq	%rax, 24(%rsp)
	jmp	.L1086
.L1140:
	movq	%rax, %rbp
	leaq	240(%rsp), %rax
	movq	%rax, 32(%rsp)
	leaq	336(%rsp), %rax
	movq	%rax, 24(%rsp)
	jmp	.L1088
.L1154:
	movq	%rax, %rbp
	jmp	.L1096
.L1142:
	movq	%rax, %rbp
	leaq	240(%rsp), %rax
	movq	%rax, 32(%rsp)
	leaq	336(%rsp), %rax
	movq	%rax, 24(%rsp)
	jmp	.L1084
.L1146:
	movq	%rax, %rbp
	jmp	.L1076
.L1156:
	movq	%rax, %rbp
	jmp	.L1092
.L1145:
	movq	%rax, %rbp
	jmp	.L1078
.L1144:
	movq	%rax, %rbp
	leaq	336(%rsp), %rax
	movq	%rax, 24(%rsp)
	jmp	.L1080
.L1147:
	movq	%rax, %rbp
	jmp	.L1074
.L1149:
	movq	%rax, %rbp
	jmp	.L1106
.L1148:
	movq	%rax, %rbp
	jmp	.L1108
.L1151:
	movq	%rax, %rbp
	jmp	.L1102
.L1143:
	movq	%rax, %rbp
	leaq	336(%rsp), %rax
	movq	%rax, 24(%rsp)
	jmp	.L1082
.L1159:
	movq	%rax, %rbp
	jmp	.L1120
.L1158:
	movq	%rax, %rbp
	jmp	.L1122
.L1164:
	movq	%rax, %rbp
	jmp	.L1110
.L1152:
	movq	%rax, %rbp
	jmp	.L1100
.L1163:
	movq	%rax, %rbp
	jmp	.L1112
	.section	.gcc_except_table
.LLSDA4769:
	.byte	0xff
	.byte	0xff
	.byte	0x1
	.uleb128 .LLSDACSE4769-.LLSDACSB4769
.LLSDACSB4769:
	.uleb128 .LEHB13-.LFB4769
	.uleb128 .LEHE13-.LEHB13
	.uleb128 0
	.uleb128 0
	.uleb128 .LEHB14-.LFB4769
	.uleb128 .LEHE14-.LEHB14
	.uleb128 .L1139-.LFB4769
	.uleb128 0
	.uleb128 .LEHB15-.LFB4769
	.uleb128 .LEHE15-.LEHB15
	.uleb128 .L1140-.LFB4769
	.uleb128 0
	.uleb128 .LEHB16-.LFB4769
	.uleb128 .LEHE16-.LEHB16
	.uleb128 .L1141-.LFB4769
	.uleb128 0
	.uleb128 .LEHB17-.LFB4769
	.uleb128 .LEHE17-.LEHB17
	.uleb128 .L1142-.LFB4769
	.uleb128 0
	.uleb128 .LEHB18-.LFB4769
	.uleb128 .LEHE18-.LEHB18
	.uleb128 .L1143-.LFB4769
	.uleb128 0
	.uleb128 .LEHB19-.LFB4769
	.uleb128 .LEHE19-.LEHB19
	.uleb128 .L1144-.LFB4769
	.uleb128 0
	.uleb128 .LEHB20-.LFB4769
	.uleb128 .LEHE20-.LEHB20
	.uleb128 .L1145-.LFB4769
	.uleb128 0
	.uleb128 .LEHB21-.LFB4769
	.uleb128 .LEHE21-.LEHB21
	.uleb128 .L1146-.LFB4769
	.uleb128 0
	.uleb128 .LEHB22-.LFB4769
	.uleb128 .LEHE22-.LEHB22
	.uleb128 .L1147-.LFB4769
	.uleb128 0
	.uleb128 .LEHB23-.LFB4769
	.uleb128 .LEHE23-.LEHB23
	.uleb128 0
	.uleb128 0
	.uleb128 .LEHB24-.LFB4769
	.uleb128 .LEHE24-.LEHB24
	.uleb128 .L1148-.LFB4769
	.uleb128 0
	.uleb128 .LEHB25-.LFB4769
	.uleb128 .LEHE25-.LEHB25
	.uleb128 .L1149-.LFB4769
	.uleb128 0
	.uleb128 .LEHB26-.LFB4769
	.uleb128 .LEHE26-.LEHB26
	.uleb128 .L1150-.LFB4769
	.uleb128 0
	.uleb128 .LEHB27-.LFB4769
	.uleb128 .LEHE27-.LEHB27
	.uleb128 .L1151-.LFB4769
	.uleb128 0
	.uleb128 .LEHB28-.LFB4769
	.uleb128 .LEHE28-.LEHB28
	.uleb128 .L1152-.LFB4769
	.uleb128 0
	.uleb128 .LEHB29-.LFB4769
	.uleb128 .LEHE29-.LEHB29
	.uleb128 .L1153-.LFB4769
	.uleb128 0
	.uleb128 .LEHB30-.LFB4769
	.uleb128 .LEHE30-.LEHB30
	.uleb128 .L1154-.LFB4769
	.uleb128 0
	.uleb128 .LEHB31-.LFB4769
	.uleb128 .LEHE31-.LEHB31
	.uleb128 .L1155-.LFB4769
	.uleb128 0
	.uleb128 .LEHB32-.LFB4769
	.uleb128 .LEHE32-.LEHB32
	.uleb128 .L1156-.LFB4769
	.uleb128 0
	.uleb128 .LEHB33-.LFB4769
	.uleb128 .LEHE33-.LEHB33
	.uleb128 0
	.uleb128 0
	.uleb128 .LEHB34-.LFB4769
	.uleb128 .LEHE34-.LEHB34
	.uleb128 .L1157-.LFB4769
	.uleb128 0
	.uleb128 .LEHB35-.LFB4769
	.uleb128 .LEHE35-.LEHB35
	.uleb128 .L1158-.LFB4769
	.uleb128 0
	.uleb128 .LEHB36-.LFB4769
	.uleb128 .LEHE36-.LEHB36
	.uleb128 .L1159-.LFB4769
	.uleb128 0
	.uleb128 .LEHB37-.LFB4769
	.uleb128 .LEHE37-.LEHB37
	.uleb128 .L1160-.LFB4769
	.uleb128 0
	.uleb128 .LEHB38-.LFB4769
	.uleb128 .LEHE38-.LEHB38
	.uleb128 .L1161-.LFB4769
	.uleb128 0
	.uleb128 .LEHB39-.LFB4769
	.uleb128 .LEHE39-.LEHB39
	.uleb128 .L1162-.LFB4769
	.uleb128 0
	.uleb128 .LEHB40-.LFB4769
	.uleb128 .LEHE40-.LEHB40
	.uleb128 .L1163-.LFB4769
	.uleb128 0
	.uleb128 .LEHB41-.LFB4769
	.uleb128 .LEHE41-.LEHB41
	.uleb128 .L1164-.LFB4769
	.uleb128 0
	.uleb128 .LEHB42-.LFB4769
	.uleb128 .LEHE42-.LEHB42
	.uleb128 0
	.uleb128 0
	.uleb128 .LEHB43-.LFB4769
	.uleb128 .LEHE43-.LEHB43
	.uleb128 .L1154-.LFB4769
	.uleb128 0
	.uleb128 .LEHB44-.LFB4769
	.uleb128 .LEHE44-.LEHB44
	.uleb128 .L1152-.LFB4769
	.uleb128 0
	.uleb128 .LEHB45-.LFB4769
	.uleb128 .LEHE45-.LEHB45
	.uleb128 .L1145-.LFB4769
	.uleb128 0
	.uleb128 .LEHB46-.LFB4769
	.uleb128 .LEHE46-.LEHB46
	.uleb128 .L1143-.LFB4769
	.uleb128 0
	.uleb128 .LEHB47-.LFB4769
	.uleb128 .LEHE47-.LEHB47
	.uleb128 .L1163-.LFB4769
	.uleb128 0
	.uleb128 .LEHB48-.LFB4769
	.uleb128 .LEHE48-.LEHB48
	.uleb128 .L1161-.LFB4769
	.uleb128 0
	.uleb128 .LEHB49-.LFB4769
	.uleb128 .LEHE49-.LEHB49
	.uleb128 .L1146-.LFB4769
	.uleb128 0
	.uleb128 .LEHB50-.LFB4769
	.uleb128 .LEHE50-.LEHB50
	.uleb128 .L1151-.LFB4769
	.uleb128 0
	.uleb128 .LEHB51-.LFB4769
	.uleb128 .LEHE51-.LEHB51
	.uleb128 .L1144-.LFB4769
	.uleb128 0
	.uleb128 .LEHB52-.LFB4769
	.uleb128 .LEHE52-.LEHB52
	.uleb128 .L1160-.LFB4769
	.uleb128 0
	.uleb128 .LEHB53-.LFB4769
	.uleb128 .LEHE53-.LEHB53
	.uleb128 .L1155-.LFB4769
	.uleb128 0
	.uleb128 .LEHB54-.LFB4769
	.uleb128 .LEHE54-.LEHB54
	.uleb128 .L1162-.LFB4769
	.uleb128 0
	.uleb128 .LEHB55-.LFB4769
	.uleb128 .LEHE55-.LEHB55
	.uleb128 .L1153-.LFB4769
	.uleb128 0
	.uleb128 .LEHB56-.LFB4769
	.uleb128 .LEHE56-.LEHB56
	.uleb128 .L1142-.LFB4769
	.uleb128 0
.LLSDACSE4769:
	.text
	.cfi_endproc
	.section	.text.unlikely
	.cfi_startproc
	.cfi_personality 0x9b,DW.ref.__gxx_personality_v0
	.cfi_lsda 0x1b,.LLSDAC4769
	.type	_ZN16CameraInfoWindow5shoutEv.cold, @function
_ZN16CameraInfoWindow5shoutEv.cold:
.LFSB4769:
.L1092:
	.cfi_def_cfa_offset 496
	.cfi_offset 3, -56
	.cfi_offset 6, -48
	.cfi_offset 12, -40
	.cfi_offset 13, -32
	.cfi_offset 14, -24
	.cfi_offset 15, -16
	movq	384(%rsp), %rdi
	cmpq	40(%rsp), %rdi
	je	.L1094
	movq	400(%rsp), %rax
	leaq	1(%rax), %rsi
	call	_ZdlPvm@PLT
.L1094:
	movq	352(%rsp), %rdi
	cmpq	56(%rsp), %rdi
	je	.L1096
	movq	368(%rsp), %rax
	leaq	1(%rax), %rsi
	call	_ZdlPvm@PLT
.L1096:
	movq	288(%rsp), %rdi
	cmpq	16(%rsp), %rdi
	je	.L1098
	movq	304(%rsp), %rax
	leaq	1(%rax), %rsi
	call	_ZdlPvm@PLT
.L1098:
	movq	256(%rsp), %rdi
	cmpq	48(%rsp), %rdi
	je	.L1100
	movq	272(%rsp), %rax
	leaq	1(%rax), %rsi
	call	_ZdlPvm@PLT
.L1100:
	movq	192(%rsp), %rdi
	cmpq	8(%rsp), %rdi
	je	.L1102
	movq	208(%rsp), %rax
	leaq	1(%rax), %rsi
	call	_ZdlPvm@PLT
.L1102:
	movq	160(%rsp), %rdi
	cmpq	64(%rsp), %rdi
	je	.L1104
	movq	176(%rsp), %rax
	leaq	1(%rax), %rsi
	call	_ZdlPvm@PLT
.L1104:
	movq	128(%rsp), %rdi
	cmpq	104(%rsp), %rdi
	je	.L1106
	movq	144(%rsp), %rax
	leaq	1(%rax), %rsi
	call	_ZdlPvm@PLT
.L1106:
	movq	224(%rsp), %rdi
	cmpq	32(%rsp), %rdi
	je	.L1108
	movq	240(%rsp), %rax
	leaq	1(%rax), %rsi
	call	_ZdlPvm@PLT
.L1108:
	movq	320(%rsp), %rdi
	cmpq	24(%rsp), %rdi
	je	.L1125
	movq	336(%rsp), %rax
	leaq	1(%rax), %rsi
	call	_ZdlPvm@PLT
.L1125:
	movq	%rbp, %rdi
.LEHB57:
	call	_Unwind_Resume@PLT
.LEHE57:
.L1110:
	movq	384(%rsp), %rdi
	cmpq	40(%rsp), %rdi
	je	.L1112
	movq	400(%rsp), %rax
	leaq	1(%rax), %rsi
	call	_ZdlPvm@PLT
.L1112:
	movq	320(%rsp), %rdi
	cmpq	24(%rsp), %rdi
	je	.L1114
	movq	336(%rsp), %rax
	leaq	1(%rax), %rsi
	call	_ZdlPvm@PLT
.L1114:
	movq	288(%rsp), %rdi
	cmpq	16(%rsp), %rdi
	je	.L1116
	movq	304(%rsp), %rax
	leaq	1(%rax), %rsi
	call	_ZdlPvm@PLT
.L1116:
	movq	224(%rsp), %rdi
	cmpq	32(%rsp), %rdi
	je	.L1118
	movq	240(%rsp), %rax
	leaq	1(%rax), %rsi
	call	_ZdlPvm@PLT
.L1118:
	movq	192(%rsp), %rdi
	cmpq	8(%rsp), %rdi
	je	.L1120
	movq	208(%rsp), %rax
	leaq	1(%rax), %rsi
	call	_ZdlPvm@PLT
.L1120:
	movq	160(%rsp), %rdi
	cmpq	64(%rsp), %rdi
	je	.L1122
	movq	176(%rsp), %rax
	leaq	1(%rax), %rsi
	call	_ZdlPvm@PLT
.L1122:
	movq	256(%rsp), %rdi
	cmpq	48(%rsp), %rdi
	je	.L1124
	movq	272(%rsp), %rax
	leaq	1(%rax), %rsi
	call	_ZdlPvm@PLT
.L1124:
	movq	352(%rsp), %rdi
	cmpq	56(%rsp), %rdi
	je	.L1125
	movq	368(%rsp), %rax
	leaq	1(%rax), %rsi
	call	_ZdlPvm@PLT
	jmp	.L1125
.L1074:
	movq	384(%rsp), %rdi
	cmpq	40(%rsp), %rdi
	je	.L1076
	movq	400(%rsp), %rax
	leaq	1(%rax), %rsi
	call	_ZdlPvm@PLT
.L1076:
	movq	352(%rsp), %rdi
	cmpq	56(%rsp), %rdi
	je	.L1078
	movq	368(%rsp), %rax
	leaq	1(%rax), %rsi
	call	_ZdlPvm@PLT
.L1078:
	movq	288(%rsp), %rdi
	cmpq	16(%rsp), %rdi
	je	.L1080
	movq	304(%rsp), %rax
	leaq	1(%rax), %rsi
	call	_ZdlPvm@PLT
.L1080:
	movq	256(%rsp), %rdi
	cmpq	48(%rsp), %rdi
	je	.L1082
	movq	272(%rsp), %rax
	leaq	1(%rax), %rsi
	call	_ZdlPvm@PLT
.L1082:
	movq	192(%rsp), %rdi
	cmpq	8(%rsp), %rdi
	je	.L1084
	movq	208(%rsp), %rax
	leaq	1(%rax), %rsi
	call	_ZdlPvm@PLT
.L1084:
	movq	160(%rsp), %rdi
	cmpq	64(%rsp), %rdi
	je	.L1086
	movq	176(%rsp), %rax
	leaq	1(%rax), %rsi
	call	_ZdlPvm@PLT
.L1086:
	movq	128(%rsp), %rdi
	leaq	144(%rsp), %rax
	cmpq	%rax, %rdi
	je	.L1088
	movq	144(%rsp), %rax
	leaq	1(%rax), %rsi
	call	_ZdlPvm@PLT
.L1088:
	movq	224(%rsp), %rdi
	cmpq	32(%rsp), %rdi
	je	.L1108
	movq	240(%rsp), %rax
	leaq	1(%rax), %rsi
	call	_ZdlPvm@PLT
	jmp	.L1108
	.cfi_endproc
.LFE4769:
	.section	.gcc_except_table
.LLSDAC4769:
	.byte	0xff
	.byte	0xff
	.byte	0x1
	.uleb128 .LLSDACSEC4769-.LLSDACSBC4769
.LLSDACSBC4769:
	.uleb128 .LEHB57-.LCOLDB51
	.uleb128 .LEHE57-.LEHB57
	.uleb128 0
	.uleb128 0
.LLSDACSEC4769:
	.section	.text.unlikely
	.text
	.size	_ZN16CameraInfoWindow5shoutEv, .-_ZN16CameraInfoWindow5shoutEv
	.section	.text.unlikely
	.size	_ZN16CameraInfoWindow5shoutEv.cold, .-_ZN16CameraInfoWindow5shoutEv.cold
.LCOLDE51:
	.text
.LHOTE51:
	.align 2
	.p2align 4
	.globl	_ZN12ImguiElement5getIDB5cxx11Ev
	.type	_ZN12ImguiElement5getIDB5cxx11Ev, @function
_ZN12ImguiElement5getIDB5cxx11Ev:
.LFB4738:
	.cfi_startproc
	pushq	%r13
	.cfi_def_cfa_offset 16
	.cfi_offset 13, -16
	pushq	%r12
	.cfi_def_cfa_offset 24
	.cfi_offset 12, -24
	movq	%rdi, %r12
	addq	$16, %rdi
	pushq	%rbp
	.cfi_def_cfa_offset 32
	.cfi_offset 6, -32
	subq	$16, %rsp
	.cfi_def_cfa_offset 48
	movq	16(%rsi), %r13
	movq	%fs:40, %rax
	movq	%rax, 8(%rsp)
	xorl	%eax, %eax
	movq	%rdi, (%r12)
	movq	8(%rsi), %rbp
	movq	%rbp, %rax
	addq	%r13, %rax
	je	.L1222
	testq	%rbp, %rbp
	je	.L1238
.L1222:
	movq	%r13, (%rsp)
	cmpq	$15, %r13
	ja	.L1239
	cmpq	$1, %r13
	jne	.L1225
	movzbl	0(%rbp), %eax
	movb	%al, 16(%r12)
.L1226:
	movq	%r13, 8(%r12)
	movb	$0, (%rdi,%r13)
	movq	8(%rsp), %rax
	subq	%fs:40, %rax
	jne	.L1240
	addq	$16, %rsp
	.cfi_remember_state
	.cfi_def_cfa_offset 32
	movq	%r12, %rax
	popq	%rbp
	.cfi_def_cfa_offset 24
	popq	%r12
	.cfi_def_cfa_offset 16
	popq	%r13
	.cfi_def_cfa_offset 8
	ret
	.p2align 4,,10
	.p2align 3
.L1225:
	.cfi_restore_state
	testq	%r13, %r13
	je	.L1226
	jmp	.L1224
	.p2align 4,,10
	.p2align 3
.L1239:
	movq	%r12, %rdi
	movq	%rsp, %rsi
	xorl	%edx, %edx
	call	_ZNSt7__cxx1112basic_stringIcSt11char_traitsIcESaIcEE9_M_createERmm@PLT
	movq	%rax, (%r12)
	movq	%rax, %rdi
	movq	(%rsp), %rax
	movq	%rax, 16(%r12)
.L1224:
	movq	%r13, %rdx
	movq	%rbp, %rsi
	call	memcpy@PLT
	movq	(%rsp), %r13
	movq	(%r12), %rdi
	jmp	.L1226
.L1238:
	leaq	.LC7(%rip), %rdi
	call	_ZSt19__throw_logic_errorPKc@PLT
.L1240:
	call	__stack_chk_fail@PLT
	.cfi_endproc
.LFE4738:
	.size	_ZN12ImguiElement5getIDB5cxx11Ev, .-_ZN12ImguiElement5getIDB5cxx11Ev
	.section	.text.unlikely
	.align 2
.LCOLDB52:
	.text
.LHOTB52:
	.align 2
	.p2align 4
	.globl	_ZN14ImguiTextFieldC2ERKNSt7__cxx1112basic_stringIcSt11char_traitsIcESaIcEEE
	.type	_ZN14ImguiTextFieldC2ERKNSt7__cxx1112basic_stringIcSt11char_traitsIcESaIcEEE, @function
_ZN14ImguiTextFieldC2ERKNSt7__cxx1112basic_stringIcSt11char_traitsIcESaIcEEE:
.LFB4743:
	.cfi_startproc
	.cfi_personality 0x9b,DW.ref.__gxx_personality_v0
	.cfi_lsda 0x1b,.LLSDA4743
	pushq	%r14
	.cfi_def_cfa_offset 16
	.cfi_offset 14, -16
	pushq	%r13
	.cfi_def_cfa_offset 24
	.cfi_offset 13, -24
	leaq	16+_ZTV12ImguiElement(%rip), %r13
	pushq	%r12
	.cfi_def_cfa_offset 32
	.cfi_offset 12, -32
	leaq	24(%rdi), %r12
	pushq	%rbp
	.cfi_def_cfa_offset 40
	.cfi_offset 6, -40
	movq	%rsi, %rbp
	pushq	%rbx
	.cfi_def_cfa_offset 48
	.cfi_offset 3, -48
	movq	%rdi, %rbx
	movq	%r13, (%rdi)
	movq	%r12, 8(%rdi)
	movq	$0, 16(%rdi)
	movb	$0, 24(%rdi)
.LEHB58:
	call	_ZN12ImguiElement8changeIDERKNSt7__cxx1112basic_stringIcSt11char_traitsIcESaIcEEE
.LEHE58:
	leaq	56(%rbx), %r14
	movb	$0, 56(%rbx)
	leaq	40(%rbx), %rdi
	movq	%rbp, %rsi
	leaq	16+_ZTV14ImguiTextField(%rip), %rax
	movq	%r14, 40(%rbx)
	movq	%rax, (%rbx)
	movq	$0, 48(%rbx)
.LEHB59:
	call	_ZNSt7__cxx1112basic_stringIcSt11char_traitsIcESaIcEE9_M_assignERKS4_@PLT
.LEHE59:
	popq	%rbx
	.cfi_remember_state
	.cfi_def_cfa_offset 40
	popq	%rbp
	.cfi_def_cfa_offset 32
	popq	%r12
	.cfi_def_cfa_offset 24
	popq	%r13
	.cfi_def_cfa_offset 16
	popq	%r14
	.cfi_def_cfa_offset 8
	ret
.L1249:
	.cfi_restore_state
	movq	%rax, %rbp
	jmp	.L1243
.L1248:
	movq	%rax, %rbp
	jmp	.L1245
	.section	.gcc_except_table
.LLSDA4743:
	.byte	0xff
	.byte	0xff
	.byte	0x1
	.uleb128 .LLSDACSE4743-.LLSDACSB4743
.LLSDACSB4743:
	.uleb128 .LEHB58-.LFB4743
	.uleb128 .LEHE58-.LEHB58
	.uleb128 .L1249-.LFB4743
	.uleb128 0
	.uleb128 .LEHB59-.LFB4743
	.uleb128 .LEHE59-.LEHB59
	.uleb128 .L1248-.LFB4743
	.uleb128 0
.LLSDACSE4743:
	.text
	.cfi_endproc
	.section	.text.unlikely
	.cfi_startproc
	.cfi_personality 0x9b,DW.ref.__gxx_personality_v0
	.cfi_lsda 0x1b,.LLSDAC4743
	.type	_ZN14ImguiTextFieldC2ERKNSt7__cxx1112basic_stringIcSt11char_traitsIcESaIcEEE.cold, @function
_ZN14ImguiTextFieldC2ERKNSt7__cxx1112basic_stringIcSt11char_traitsIcESaIcEEE.cold:
.LFSB4743:
.L1243:
	.cfi_def_cfa_offset 48
	.cfi_offset 3, -48
	.cfi_offset 6, -40
	.cfi_offset 12, -32
	.cfi_offset 13, -24
	.cfi_offset 14, -16
	movq	8(%rbx), %rdi
	cmpq	%rdi, %r12
	je	.L1244
	movq	24(%rbx), %rsi
	addq	$1, %rsi
	call	_ZdlPvm@PLT
.L1244:
	movq	%rbp, %rdi
.LEHB60:
	call	_Unwind_Resume@PLT
.L1245:
	movq	40(%rbx), %rdi
	cmpq	%rdi, %r14
	je	.L1246
	movq	56(%rbx), %rax
	leaq	1(%rax), %rsi
	call	_ZdlPvm@PLT
.L1246:
	movq	8(%rbx), %rdi
	movq	%r13, (%rbx)
	cmpq	%r12, %rdi
	je	.L1247
	movq	24(%rbx), %rsi
	addq	$1, %rsi
	call	_ZdlPvm@PLT
.L1247:
	movq	%rbp, %rdi
	call	_Unwind_Resume@PLT
.LEHE60:
	.cfi_endproc
.LFE4743:
	.section	.gcc_except_table
.LLSDAC4743:
	.byte	0xff
	.byte	0xff
	.byte	0x1
	.uleb128 .LLSDACSEC4743-.LLSDACSBC4743
.LLSDACSBC4743:
	.uleb128 .LEHB60-.LCOLDB52
	.uleb128 .LEHE60-.LEHB60
	.uleb128 0
	.uleb128 0
.LLSDACSEC4743:
	.section	.text.unlikely
	.text
	.size	_ZN14ImguiTextFieldC2ERKNSt7__cxx1112basic_stringIcSt11char_traitsIcESaIcEEE, .-_ZN14ImguiTextFieldC2ERKNSt7__cxx1112basic_stringIcSt11char_traitsIcESaIcEEE
	.section	.text.unlikely
	.size	_ZN14ImguiTextFieldC2ERKNSt7__cxx1112basic_stringIcSt11char_traitsIcESaIcEEE.cold, .-_ZN14ImguiTextFieldC2ERKNSt7__cxx1112basic_stringIcSt11char_traitsIcESaIcEEE.cold
.LCOLDE52:
	.text
.LHOTE52:
	.globl	_ZN14ImguiTextFieldC1ERKNSt7__cxx1112basic_stringIcSt11char_traitsIcESaIcEEE
	.set	_ZN14ImguiTextFieldC1ERKNSt7__cxx1112basic_stringIcSt11char_traitsIcESaIcEEE,_ZN14ImguiTextFieldC2ERKNSt7__cxx1112basic_stringIcSt11char_traitsIcESaIcEEE
	.align 2
	.p2align 4
	.globl	_ZN14ImguiTextField10changeTextERKNSt7__cxx1112basic_stringIcSt11char_traitsIcESaIcEEE
	.type	_ZN14ImguiTextField10changeTextERKNSt7__cxx1112basic_stringIcSt11char_traitsIcESaIcEEE, @function
_ZN14ImguiTextField10changeTextERKNSt7__cxx1112basic_stringIcSt11char_traitsIcESaIcEEE:
.LFB4746:
	.cfi_startproc
	pushq	%rbp
	.cfi_def_cfa_offset 16
	.cfi_offset 6, -16
	movq	%rsi, %rbp
	pushq	%rbx
	.cfi_def_cfa_offset 24
	.cfi_offset 3, -24
	movq	%rdi, %rbx
	subq	$8, %rsp
	.cfi_def_cfa_offset 32
	call	_ZN12ImguiElement8changeIDERKNSt7__cxx1112basic_stringIcSt11char_traitsIcESaIcEEE
	addq	$8, %rsp
	.cfi_def_cfa_offset 24
	leaq	40(%rbx), %rdi
	movq	%rbp, %rsi
	popq	%rbx
	.cfi_def_cfa_offset 16
	popq	%rbp
	.cfi_def_cfa_offset 8
	jmp	_ZNSt7__cxx1112basic_stringIcSt11char_traitsIcESaIcEE9_M_assignERKS4_@PLT
	.cfi_endproc
.LFE4746:
	.size	_ZN14ImguiTextField10changeTextERKNSt7__cxx1112basic_stringIcSt11char_traitsIcESaIcEEE, .-_ZN14ImguiTextField10changeTextERKNSt7__cxx1112basic_stringIcSt11char_traitsIcESaIcEEE
	.section	.text.unlikely
	.align 2
.LCOLDB53:
	.text
.LHOTB53:
	.align 2
	.p2align 4
	.globl	_ZN13ImguiCheckBoxC2ERKNSt7__cxx1112basic_stringIcSt11char_traitsIcESaIcEEEPb
	.type	_ZN13ImguiCheckBoxC2ERKNSt7__cxx1112basic_stringIcSt11char_traitsIcESaIcEEEPb, @function
_ZN13ImguiCheckBoxC2ERKNSt7__cxx1112basic_stringIcSt11char_traitsIcESaIcEEEPb:
.LFB4748:
	.cfi_startproc
	.cfi_personality 0x9b,DW.ref.__gxx_personality_v0
	.cfi_lsda 0x1b,.LLSDA4748
	pushq	%r15
	.cfi_def_cfa_offset 16
	.cfi_offset 15, -16
	pushq	%r14
	.cfi_def_cfa_offset 24
	.cfi_offset 14, -24
	leaq	16+_ZTV12ImguiElement(%rip), %r14
	pushq	%r13
	.cfi_def_cfa_offset 32
	.cfi_offset 13, -32
	leaq	24(%rdi), %r13
	pushq	%r12
	.cfi_def_cfa_offset 40
	.cfi_offset 12, -40
	movq	%rsi, %r12
	pushq	%rbp
	.cfi_def_cfa_offset 48
	.cfi_offset 6, -48
	movq	%rdx, %rbp
	pushq	%rbx
	.cfi_def_cfa_offset 56
	.cfi_offset 3, -56
	movq	%rdi, %rbx
	subq	$8, %rsp
	.cfi_def_cfa_offset 64
	movq	%r14, (%rdi)
	movq	%r13, 8(%rdi)
	movq	$0, 16(%rdi)
	movb	$0, 24(%rdi)
.LEHB61:
	call	_ZN12ImguiElement8changeIDERKNSt7__cxx1112basic_stringIcSt11char_traitsIcESaIcEEE
.LEHE61:
	leaq	64(%rbx), %r15
	movq	%rbp, %xmm0
	movb	$0, 64(%rbx)
	movq	%r12, %rsi
	leaq	16+_ZTV13ImguiCheckBox(%rip), %rax
	movq	%r15, %xmm1
	movq	$0, 56(%rbx)
	leaq	48(%rbx), %rdi
	movq	%rax, (%rbx)
	punpcklqdq	%xmm1, %xmm0
	movups	%xmm0, 40(%rbx)
.LEHB62:
	call	_ZNSt7__cxx1112basic_stringIcSt11char_traitsIcESaIcEE9_M_assignERKS4_@PLT
.LEHE62:
	addq	$8, %rsp
	.cfi_remember_state
	.cfi_def_cfa_offset 56
	popq	%rbx
	.cfi_def_cfa_offset 48
	popq	%rbp
	.cfi_def_cfa_offset 40
	popq	%r12
	.cfi_def_cfa_offset 32
	popq	%r13
	.cfi_def_cfa_offset 24
	popq	%r14
	.cfi_def_cfa_offset 16
	popq	%r15
	.cfi_def_cfa_offset 8
	ret
.L1263:
	.cfi_restore_state
	movq	%rax, %rbp
	jmp	.L1257
.L1262:
	movq	%rax, %rbp
	jmp	.L1259
	.section	.gcc_except_table
.LLSDA4748:
	.byte	0xff
	.byte	0xff
	.byte	0x1
	.uleb128 .LLSDACSE4748-.LLSDACSB4748
.LLSDACSB4748:
	.uleb128 .LEHB61-.LFB4748
	.uleb128 .LEHE61-.LEHB61
	.uleb128 .L1263-.LFB4748
	.uleb128 0
	.uleb128 .LEHB62-.LFB4748
	.uleb128 .LEHE62-.LEHB62
	.uleb128 .L1262-.LFB4748
	.uleb128 0
.LLSDACSE4748:
	.text
	.cfi_endproc
	.section	.text.unlikely
	.cfi_startproc
	.cfi_personality 0x9b,DW.ref.__gxx_personality_v0
	.cfi_lsda 0x1b,.LLSDAC4748
	.type	_ZN13ImguiCheckBoxC2ERKNSt7__cxx1112basic_stringIcSt11char_traitsIcESaIcEEEPb.cold, @function
_ZN13ImguiCheckBoxC2ERKNSt7__cxx1112basic_stringIcSt11char_traitsIcESaIcEEEPb.cold:
.LFSB4748:
.L1257:
	.cfi_def_cfa_offset 64
	.cfi_offset 3, -56
	.cfi_offset 6, -48
	.cfi_offset 12, -40
	.cfi_offset 13, -32
	.cfi_offset 14, -24
	.cfi_offset 15, -16
	movq	8(%rbx), %rdi
	cmpq	%rdi, %r13
	je	.L1258
	movq	24(%rbx), %rsi
	addq	$1, %rsi
	call	_ZdlPvm@PLT
.L1258:
	movq	%rbp, %rdi
.LEHB63:
	call	_Unwind_Resume@PLT
.L1259:
	movq	48(%rbx), %rdi
	cmpq	%rdi, %r15
	je	.L1260
	movq	64(%rbx), %rax
	leaq	1(%rax), %rsi
	call	_ZdlPvm@PLT
.L1260:
	movq	8(%rbx), %rdi
	movq	%r14, (%rbx)
	cmpq	%r13, %rdi
	je	.L1261
	movq	24(%rbx), %rsi
	addq	$1, %rsi
	call	_ZdlPvm@PLT
.L1261:
	movq	%rbp, %rdi
	call	_Unwind_Resume@PLT
.LEHE63:
	.cfi_endproc
.LFE4748:
	.section	.gcc_except_table
.LLSDAC4748:
	.byte	0xff
	.byte	0xff
	.byte	0x1
	.uleb128 .LLSDACSEC4748-.LLSDACSBC4748
.LLSDACSBC4748:
	.uleb128 .LEHB63-.LCOLDB53
	.uleb128 .LEHE63-.LEHB63
	.uleb128 0
	.uleb128 0
.LLSDACSEC4748:
	.section	.text.unlikely
	.text
	.size	_ZN13ImguiCheckBoxC2ERKNSt7__cxx1112basic_stringIcSt11char_traitsIcESaIcEEEPb, .-_ZN13ImguiCheckBoxC2ERKNSt7__cxx1112basic_stringIcSt11char_traitsIcESaIcEEEPb
	.section	.text.unlikely
	.size	_ZN13ImguiCheckBoxC2ERKNSt7__cxx1112basic_stringIcSt11char_traitsIcESaIcEEEPb.cold, .-_ZN13ImguiCheckBoxC2ERKNSt7__cxx1112basic_stringIcSt11char_traitsIcESaIcEEEPb.cold
.LCOLDE53:
	.text
.LHOTE53:
	.globl	_ZN13ImguiCheckBoxC1ERKNSt7__cxx1112basic_stringIcSt11char_traitsIcESaIcEEEPb
	.set	_ZN13ImguiCheckBoxC1ERKNSt7__cxx1112basic_stringIcSt11char_traitsIcESaIcEEEPb,_ZN13ImguiCheckBoxC2ERKNSt7__cxx1112basic_stringIcSt11char_traitsIcESaIcEEEPb
	.section	.text.unlikely
	.align 2
.LCOLDB54:
	.text
.LHOTB54:
	.align 2
	.p2align 4
	.globl	_ZN16ImguiSliderFloatC2ERKNSt7__cxx1112basic_stringIcSt11char_traitsIcESaIcEEEPfff
	.type	_ZN16ImguiSliderFloatC2ERKNSt7__cxx1112basic_stringIcSt11char_traitsIcESaIcEEEPfff, @function
_ZN16ImguiSliderFloatC2ERKNSt7__cxx1112basic_stringIcSt11char_traitsIcESaIcEEEPfff:
.LFB4752:
	.cfi_startproc
	.cfi_personality 0x9b,DW.ref.__gxx_personality_v0
	.cfi_lsda 0x1b,.LLSDA4752
	pushq	%r15
	.cfi_def_cfa_offset 16
	.cfi_offset 15, -16
	movaps	%xmm1, %xmm2
	pushq	%r14
	.cfi_def_cfa_offset 24
	.cfi_offset 14, -24
	leaq	16+_ZTV12ImguiElement(%rip), %r14
	unpcklps	%xmm0, %xmm2
	pushq	%r13
	.cfi_def_cfa_offset 32
	.cfi_offset 13, -32
	leaq	24(%rdi), %r13
	pushq	%r12
	.cfi_def_cfa_offset 40
	.cfi_offset 12, -40
	movq	%rsi, %r12
	pushq	%rbp
	.cfi_def_cfa_offset 48
	.cfi_offset 6, -48
	movq	%rdx, %rbp
	pushq	%rbx
	.cfi_def_cfa_offset 56
	.cfi_offset 3, -56
	movq	%rdi, %rbx
	subq	$24, %rsp
	.cfi_def_cfa_offset 80
	movq	%r14, (%rdi)
	movq	%r13, 8(%rdi)
	movq	$0, 16(%rdi)
	movb	$0, 24(%rdi)
	movlps	%xmm2, 8(%rsp)
.LEHB64:
	call	_ZN12ImguiElement8changeIDERKNSt7__cxx1112basic_stringIcSt11char_traitsIcESaIcEEE
.LEHE64:
	leaq	64(%rbx), %r15
	movq	%rbp, %xmm0
	movb	$0, 64(%rbx)
	movq	%r12, %rsi
	leaq	16+_ZTV16ImguiSliderFloat(%rip), %rax
	movq	%r15, %xmm3
	movq	$0, 56(%rbx)
	leaq	48(%rbx), %rdi
	movq	%rax, (%rbx)
	movq	8(%rsp), %rax
	punpcklqdq	%xmm3, %xmm0
	movups	%xmm0, 40(%rbx)
	movq	%rax, 80(%rbx)
.LEHB65:
	call	_ZNSt7__cxx1112basic_stringIcSt11char_traitsIcESaIcEE9_M_assignERKS4_@PLT
.LEHE65:
	addq	$24, %rsp
	.cfi_remember_state
	.cfi_def_cfa_offset 56
	popq	%rbx
	.cfi_def_cfa_offset 48
	popq	%rbp
	.cfi_def_cfa_offset 40
	popq	%r12
	.cfi_def_cfa_offset 32
	popq	%r13
	.cfi_def_cfa_offset 24
	popq	%r14
	.cfi_def_cfa_offset 16
	popq	%r15
	.cfi_def_cfa_offset 8
	ret
.L1275:
	.cfi_restore_state
	movq	%rax, %rbp
	jmp	.L1269
.L1274:
	movq	%rax, %rbp
	jmp	.L1271
	.section	.gcc_except_table
.LLSDA4752:
	.byte	0xff
	.byte	0xff
	.byte	0x1
	.uleb128 .LLSDACSE4752-.LLSDACSB4752
.LLSDACSB4752:
	.uleb128 .LEHB64-.LFB4752
	.uleb128 .LEHE64-.LEHB64
	.uleb128 .L1275-.LFB4752
	.uleb128 0
	.uleb128 .LEHB65-.LFB4752
	.uleb128 .LEHE65-.LEHB65
	.uleb128 .L1274-.LFB4752
	.uleb128 0
.LLSDACSE4752:
	.text
	.cfi_endproc
	.section	.text.unlikely
	.cfi_startproc
	.cfi_personality 0x9b,DW.ref.__gxx_personality_v0
	.cfi_lsda 0x1b,.LLSDAC4752
	.type	_ZN16ImguiSliderFloatC2ERKNSt7__cxx1112basic_stringIcSt11char_traitsIcESaIcEEEPfff.cold, @function
_ZN16ImguiSliderFloatC2ERKNSt7__cxx1112basic_stringIcSt11char_traitsIcESaIcEEEPfff.cold:
.LFSB4752:
.L1269:
	.cfi_def_cfa_offset 80
	.cfi_offset 3, -56
	.cfi_offset 6, -48
	.cfi_offset 12, -40
	.cfi_offset 13, -32
	.cfi_offset 14, -24
	.cfi_offset 15, -16
	movq	8(%rbx), %rdi
	cmpq	%rdi, %r13
	je	.L1270
	movq	24(%rbx), %rsi
	addq	$1, %rsi
	call	_ZdlPvm@PLT
.L1270:
	movq	%rbp, %rdi
.LEHB66:
	call	_Unwind_Resume@PLT
.L1271:
	movq	48(%rbx), %rdi
	cmpq	%rdi, %r15
	je	.L1272
	movq	64(%rbx), %rax
	leaq	1(%rax), %rsi
	call	_ZdlPvm@PLT
.L1272:
	movq	8(%rbx), %rdi
	movq	%r14, (%rbx)
	cmpq	%r13, %rdi
	je	.L1273
	movq	24(%rbx), %rsi
	addq	$1, %rsi
	call	_ZdlPvm@PLT
.L1273:
	movq	%rbp, %rdi
	call	_Unwind_Resume@PLT
.LEHE66:
	.cfi_endproc
.LFE4752:
	.section	.gcc_except_table
.LLSDAC4752:
	.byte	0xff
	.byte	0xff
	.byte	0x1
	.uleb128 .LLSDACSEC4752-.LLSDACSBC4752
.LLSDACSBC4752:
	.uleb128 .LEHB66-.LCOLDB54
	.uleb128 .LEHE66-.LEHB66
	.uleb128 0
	.uleb128 0
.LLSDACSEC4752:
	.section	.text.unlikely
	.text
	.size	_ZN16ImguiSliderFloatC2ERKNSt7__cxx1112basic_stringIcSt11char_traitsIcESaIcEEEPfff, .-_ZN16ImguiSliderFloatC2ERKNSt7__cxx1112basic_stringIcSt11char_traitsIcESaIcEEEPfff
	.section	.text.unlikely
	.size	_ZN16ImguiSliderFloatC2ERKNSt7__cxx1112basic_stringIcSt11char_traitsIcESaIcEEEPfff.cold, .-_ZN16ImguiSliderFloatC2ERKNSt7__cxx1112basic_stringIcSt11char_traitsIcESaIcEEEPfff.cold
.LCOLDE54:
	.text
.LHOTE54:
	.globl	_ZN16ImguiSliderFloatC1ERKNSt7__cxx1112basic_stringIcSt11char_traitsIcESaIcEEEPfff
	.set	_ZN16ImguiSliderFloatC1ERKNSt7__cxx1112basic_stringIcSt11char_traitsIcESaIcEEEPfff,_ZN16ImguiSliderFloatC2ERKNSt7__cxx1112basic_stringIcSt11char_traitsIcESaIcEEEPfff
	.section	.text.unlikely
	.align 2
.LCOLDB55:
	.text
.LHOTB55:
	.align 2
	.p2align 4
	.globl	_ZN14ImguiSliderIntC2ERKNSt7__cxx1112basic_stringIcSt11char_traitsIcESaIcEEEPiii
	.type	_ZN14ImguiSliderIntC2ERKNSt7__cxx1112basic_stringIcSt11char_traitsIcESaIcEEEPiii, @function
_ZN14ImguiSliderIntC2ERKNSt7__cxx1112basic_stringIcSt11char_traitsIcESaIcEEEPiii:
.LFB4756:
	.cfi_startproc
	.cfi_personality 0x9b,DW.ref.__gxx_personality_v0
	.cfi_lsda 0x1b,.LLSDA4756
	pushq	%r15
	.cfi_def_cfa_offset 16
	.cfi_offset 15, -16
	movd	%r8d, %xmm1
	movd	%ecx, %xmm2
	pushq	%r14
	.cfi_def_cfa_offset 24
	.cfi_offset 14, -24
	leaq	16+_ZTV12ImguiElement(%rip), %r14
	punpckldq	%xmm2, %xmm1
	pushq	%r13
	.cfi_def_cfa_offset 32
	.cfi_offset 13, -32
	leaq	24(%rdi), %r13
	pushq	%r12
	.cfi_def_cfa_offset 40
	.cfi_offset 12, -40
	movq	%rsi, %r12
	pushq	%rbp
	.cfi_def_cfa_offset 48
	.cfi_offset 6, -48
	movq	%rdx, %rbp
	pushq	%rbx
	.cfi_def_cfa_offset 56
	.cfi_offset 3, -56
	movq	%rdi, %rbx
	subq	$24, %rsp
	.cfi_def_cfa_offset 80
	movq	%r14, (%rdi)
	movq	%r13, 8(%rdi)
	movq	$0, 16(%rdi)
	movb	$0, 24(%rdi)
	movq	%xmm1, 8(%rsp)
.LEHB67:
	call	_ZN12ImguiElement8changeIDERKNSt7__cxx1112basic_stringIcSt11char_traitsIcESaIcEEE
.LEHE67:
	leaq	64(%rbx), %r15
	movq	%rbp, %xmm0
	movb	$0, 64(%rbx)
	movq	%r12, %rsi
	leaq	16+_ZTV14ImguiSliderInt(%rip), %rax
	movq	%r15, %xmm3
	movq	$0, 56(%rbx)
	leaq	48(%rbx), %rdi
	movq	%rax, (%rbx)
	movq	8(%rsp), %rax
	punpcklqdq	%xmm3, %xmm0
	movups	%xmm0, 40(%rbx)
	movq	%rax, 80(%rbx)
.LEHB68:
	call	_ZNSt7__cxx1112basic_stringIcSt11char_traitsIcESaIcEE9_M_assignERKS4_@PLT
.LEHE68:
	addq	$24, %rsp
	.cfi_remember_state
	.cfi_def_cfa_offset 56
	popq	%rbx
	.cfi_def_cfa_offset 48
	popq	%rbp
	.cfi_def_cfa_offset 40
	popq	%r12
	.cfi_def_cfa_offset 32
	popq	%r13
	.cfi_def_cfa_offset 24
	popq	%r14
	.cfi_def_cfa_offset 16
	popq	%r15
	.cfi_def_cfa_offset 8
	ret
.L1287:
	.cfi_restore_state
	movq	%rax, %rbp
	jmp	.L1281
.L1286:
	movq	%rax, %rbp
	jmp	.L1283
	.section	.gcc_except_table
.LLSDA4756:
	.byte	0xff
	.byte	0xff
	.byte	0x1
	.uleb128 .LLSDACSE4756-.LLSDACSB4756
.LLSDACSB4756:
	.uleb128 .LEHB67-.LFB4756
	.uleb128 .LEHE67-.LEHB67
	.uleb128 .L1287-.LFB4756
	.uleb128 0
	.uleb128 .LEHB68-.LFB4756
	.uleb128 .LEHE68-.LEHB68
	.uleb128 .L1286-.LFB4756
	.uleb128 0
.LLSDACSE4756:
	.text
	.cfi_endproc
	.section	.text.unlikely
	.cfi_startproc
	.cfi_personality 0x9b,DW.ref.__gxx_personality_v0
	.cfi_lsda 0x1b,.LLSDAC4756
	.type	_ZN14ImguiSliderIntC2ERKNSt7__cxx1112basic_stringIcSt11char_traitsIcESaIcEEEPiii.cold, @function
_ZN14ImguiSliderIntC2ERKNSt7__cxx1112basic_stringIcSt11char_traitsIcESaIcEEEPiii.cold:
.LFSB4756:
.L1281:
	.cfi_def_cfa_offset 80
	.cfi_offset 3, -56
	.cfi_offset 6, -48
	.cfi_offset 12, -40
	.cfi_offset 13, -32
	.cfi_offset 14, -24
	.cfi_offset 15, -16
	movq	8(%rbx), %rdi
	cmpq	%rdi, %r13
	je	.L1282
	movq	24(%rbx), %rsi
	addq	$1, %rsi
	call	_ZdlPvm@PLT
.L1282:
	movq	%rbp, %rdi
.LEHB69:
	call	_Unwind_Resume@PLT
.L1283:
	movq	48(%rbx), %rdi
	cmpq	%rdi, %r15
	je	.L1284
	movq	64(%rbx), %rax
	leaq	1(%rax), %rsi
	call	_ZdlPvm@PLT
.L1284:
	movq	8(%rbx), %rdi
	movq	%r14, (%rbx)
	cmpq	%r13, %rdi
	je	.L1285
	movq	24(%rbx), %rsi
	addq	$1, %rsi
	call	_ZdlPvm@PLT
.L1285:
	movq	%rbp, %rdi
	call	_Unwind_Resume@PLT
.LEHE69:
	.cfi_endproc
.LFE4756:
	.section	.gcc_except_table
.LLSDAC4756:
	.byte	0xff
	.byte	0xff
	.byte	0x1
	.uleb128 .LLSDACSEC4756-.LLSDACSBC4756
.LLSDACSBC4756:
	.uleb128 .LEHB69-.LCOLDB55
	.uleb128 .LEHE69-.LEHB69
	.uleb128 0
	.uleb128 0
.LLSDACSEC4756:
	.section	.text.unlikely
	.text
	.size	_ZN14ImguiSliderIntC2ERKNSt7__cxx1112basic_stringIcSt11char_traitsIcESaIcEEEPiii, .-_ZN14ImguiSliderIntC2ERKNSt7__cxx1112basic_stringIcSt11char_traitsIcESaIcEEEPiii
	.section	.text.unlikely
	.size	_ZN14ImguiSliderIntC2ERKNSt7__cxx1112basic_stringIcSt11char_traitsIcESaIcEEEPiii.cold, .-_ZN14ImguiSliderIntC2ERKNSt7__cxx1112basic_stringIcSt11char_traitsIcESaIcEEEPiii.cold
.LCOLDE55:
	.text
.LHOTE55:
	.globl	_ZN14ImguiSliderIntC1ERKNSt7__cxx1112basic_stringIcSt11char_traitsIcESaIcEEEPiii
	.set	_ZN14ImguiSliderIntC1ERKNSt7__cxx1112basic_stringIcSt11char_traitsIcESaIcEEEPiii,_ZN14ImguiSliderIntC2ERKNSt7__cxx1112basic_stringIcSt11char_traitsIcESaIcEEEPiii
	.section	.text.unlikely
	.align 2
.LCOLDB56:
	.text
.LHOTB56:
	.align 2
	.p2align 4
	.globl	_ZN11ImguiButtonC2ERKNSt7__cxx1112basic_stringIcSt11char_traitsIcESaIcEEEPb
	.type	_ZN11ImguiButtonC2ERKNSt7__cxx1112basic_stringIcSt11char_traitsIcESaIcEEEPb, @function
_ZN11ImguiButtonC2ERKNSt7__cxx1112basic_stringIcSt11char_traitsIcESaIcEEEPb:
.LFB4760:
	.cfi_startproc
	.cfi_personality 0x9b,DW.ref.__gxx_personality_v0
	.cfi_lsda 0x1b,.LLSDA4760
	pushq	%r15
	.cfi_def_cfa_offset 16
	.cfi_offset 15, -16
	pushq	%r14
	.cfi_def_cfa_offset 24
	.cfi_offset 14, -24
	leaq	16+_ZTV12ImguiElement(%rip), %r14
	pushq	%r13
	.cfi_def_cfa_offset 32
	.cfi_offset 13, -32
	leaq	24(%rdi), %r13
	pushq	%r12
	.cfi_def_cfa_offset 40
	.cfi_offset 12, -40
	movq	%rsi, %r12
	pushq	%rbp
	.cfi_def_cfa_offset 48
	.cfi_offset 6, -48
	movq	%rdx, %rbp
	pushq	%rbx
	.cfi_def_cfa_offset 56
	.cfi_offset 3, -56
	movq	%rdi, %rbx
	subq	$8, %rsp
	.cfi_def_cfa_offset 64
	movq	%r14, (%rdi)
	movq	%r13, 8(%rdi)
	movq	$0, 16(%rdi)
	movb	$0, 24(%rdi)
.LEHB70:
	call	_ZN12ImguiElement8changeIDERKNSt7__cxx1112basic_stringIcSt11char_traitsIcESaIcEEE
.LEHE70:
	leaq	64(%rbx), %r15
	movq	%rbp, %xmm0
	movb	$0, 64(%rbx)
	movq	%r12, %rsi
	leaq	16+_ZTV11ImguiButton(%rip), %rax
	movq	%r15, %xmm1
	movq	$0, 56(%rbx)
	leaq	48(%rbx), %rdi
	movq	%rax, (%rbx)
	punpcklqdq	%xmm1, %xmm0
	movups	%xmm0, 40(%rbx)
.LEHB71:
	call	_ZNSt7__cxx1112basic_stringIcSt11char_traitsIcESaIcEE9_M_assignERKS4_@PLT
.LEHE71:
	addq	$8, %rsp
	.cfi_remember_state
	.cfi_def_cfa_offset 56
	popq	%rbx
	.cfi_def_cfa_offset 48
	popq	%rbp
	.cfi_def_cfa_offset 40
	popq	%r12
	.cfi_def_cfa_offset 32
	popq	%r13
	.cfi_def_cfa_offset 24
	popq	%r14
	.cfi_def_cfa_offset 16
	popq	%r15
	.cfi_def_cfa_offset 8
	ret
.L1299:
	.cfi_restore_state
	movq	%rax, %rbp
	jmp	.L1293
.L1298:
	movq	%rax, %rbp
	jmp	.L1295
	.section	.gcc_except_table
.LLSDA4760:
	.byte	0xff
	.byte	0xff
	.byte	0x1
	.uleb128 .LLSDACSE4760-.LLSDACSB4760
.LLSDACSB4760:
	.uleb128 .LEHB70-.LFB4760
	.uleb128 .LEHE70-.LEHB70
	.uleb128 .L1299-.LFB4760
	.uleb128 0
	.uleb128 .LEHB71-.LFB4760
	.uleb128 .LEHE71-.LEHB71
	.uleb128 .L1298-.LFB4760
	.uleb128 0
.LLSDACSE4760:
	.text
	.cfi_endproc
	.section	.text.unlikely
	.cfi_startproc
	.cfi_personality 0x9b,DW.ref.__gxx_personality_v0
	.cfi_lsda 0x1b,.LLSDAC4760
	.type	_ZN11ImguiButtonC2ERKNSt7__cxx1112basic_stringIcSt11char_traitsIcESaIcEEEPb.cold, @function
_ZN11ImguiButtonC2ERKNSt7__cxx1112basic_stringIcSt11char_traitsIcESaIcEEEPb.cold:
.LFSB4760:
.L1293:
	.cfi_def_cfa_offset 64
	.cfi_offset 3, -56
	.cfi_offset 6, -48
	.cfi_offset 12, -40
	.cfi_offset 13, -32
	.cfi_offset 14, -24
	.cfi_offset 15, -16
	movq	8(%rbx), %rdi
	cmpq	%rdi, %r13
	je	.L1294
	movq	24(%rbx), %rsi
	addq	$1, %rsi
	call	_ZdlPvm@PLT
.L1294:
	movq	%rbp, %rdi
.LEHB72:
	call	_Unwind_Resume@PLT
.L1295:
	movq	48(%rbx), %rdi
	cmpq	%rdi, %r15
	je	.L1296
	movq	64(%rbx), %rax
	leaq	1(%rax), %rsi
	call	_ZdlPvm@PLT
.L1296:
	movq	8(%rbx), %rdi
	movq	%r14, (%rbx)
	cmpq	%r13, %rdi
	je	.L1297
	movq	24(%rbx), %rsi
	addq	$1, %rsi
	call	_ZdlPvm@PLT
.L1297:
	movq	%rbp, %rdi
	call	_Unwind_Resume@PLT
.LEHE72:
	.cfi_endproc
.LFE4760:
	.section	.gcc_except_table
.LLSDAC4760:
	.byte	0xff
	.byte	0xff
	.byte	0x1
	.uleb128 .LLSDACSEC4760-.LLSDACSBC4760
.LLSDACSBC4760:
	.uleb128 .LEHB72-.LCOLDB56
	.uleb128 .LEHE72-.LEHB72
	.uleb128 0
	.uleb128 0
.LLSDACSEC4760:
	.section	.text.unlikely
	.text
	.size	_ZN11ImguiButtonC2ERKNSt7__cxx1112basic_stringIcSt11char_traitsIcESaIcEEEPb, .-_ZN11ImguiButtonC2ERKNSt7__cxx1112basic_stringIcSt11char_traitsIcESaIcEEEPb
	.section	.text.unlikely
	.size	_ZN11ImguiButtonC2ERKNSt7__cxx1112basic_stringIcSt11char_traitsIcESaIcEEEPb.cold, .-_ZN11ImguiButtonC2ERKNSt7__cxx1112basic_stringIcSt11char_traitsIcESaIcEEEPb.cold
.LCOLDE56:
	.text
.LHOTE56:
	.globl	_ZN11ImguiButtonC1ERKNSt7__cxx1112basic_stringIcSt11char_traitsIcESaIcEEEPb
	.set	_ZN11ImguiButtonC1ERKNSt7__cxx1112basic_stringIcSt11char_traitsIcESaIcEEEPb,_ZN11ImguiButtonC2ERKNSt7__cxx1112basic_stringIcSt11char_traitsIcESaIcEEEPb
	.align 2
	.p2align 4
	.globl	_ZN6Chunck12getIndexDataEv
	.type	_ZN6Chunck12getIndexDataEv, @function
_ZN6Chunck12getIndexDataEv:
.LFB7155:
	.cfi_startproc
	pushq	%r12
	.cfi_def_cfa_offset 16
	.cfi_offset 12, -16
	pxor	%xmm0, %xmm0
	movq	%rdi, %r12
	pushq	%rbp
	.cfi_def_cfa_offset 24
	.cfi_offset 6, -24
	movq	%rsi, %rbp
	pushq	%rbx
	.cfi_def_cfa_offset 32
	.cfi_offset 3, -32
	movq	32(%rsi), %rbx
	subq	24(%rsi), %rbx
	movq	$0, 16(%rdi)
	movups	%xmm0, (%rdi)
	je	.L1309
	movabsq	$9223372036854775804, %rax
	cmpq	%rax, %rbx
	ja	.L1311
	movq	%rbx, %rdi
	call	_Znwm@PLT
	movq	%rax, %rcx
.L1304:
	movq	%rcx, %xmm0
	addq	%rcx, %rbx
	punpcklqdq	%xmm0, %xmm0
	movq	%rbx, 16(%r12)
	movups	%xmm0, (%r12)
	movq	32(%rbp), %rax
	movq	24(%rbp), %rsi
	movq	%rax, %rbx
	subq	%rsi, %rbx
	cmpq	%rsi, %rax
	je	.L1308
	movq	%rcx, %rdi
	movq	%rbx, %rdx
	call	memmove@PLT
	movq	%rax, %rcx
.L1308:
	addq	%rbx, %rcx
	movq	%r12, %rax
	popq	%rbx
	.cfi_remember_state
	.cfi_def_cfa_offset 24
	popq	%rbp
	.cfi_def_cfa_offset 16
	movq	%rcx, 8(%r12)
	popq	%r12
	.cfi_def_cfa_offset 8
	ret
	.p2align 4,,10
	.p2align 3
.L1309:
	.cfi_restore_state
	xorl	%ecx, %ecx
	jmp	.L1304
	.p2align 4,,10
	.p2align 3
.L1311:
	testq	%rbx, %rbx
	jns	.L1306
	call	_ZSt28__throw_bad_array_new_lengthv@PLT
	.p2align 4,,10
	.p2align 3
.L1306:
	call	_ZSt17__throw_bad_allocv@PLT
	.cfi_endproc
.LFE7155:
	.size	_ZN6Chunck12getIndexDataEv, .-_ZN6Chunck12getIndexDataEv
	.align 2
	.p2align 4
	.globl	_ZN6Chunck13getVertexDataEv
	.type	_ZN6Chunck13getVertexDataEv, @function
_ZN6Chunck13getVertexDataEv:
.LFB7156:
	.cfi_startproc
	pushq	%r12
	.cfi_def_cfa_offset 16
	.cfi_offset 12, -16
	pxor	%xmm0, %xmm0
	movq	%rdi, %r12
	pushq	%rbp
	.cfi_def_cfa_offset 24
	.cfi_offset 6, -24
	movq	%rsi, %rbp
	pushq	%rbx
	.cfi_def_cfa_offset 32
	.cfi_offset 3, -32
	movq	56(%rsi), %rbx
	subq	48(%rsi), %rbx
	movq	$0, 16(%rdi)
	movups	%xmm0, (%rdi)
	je	.L1318
	movabsq	$9223372036854775804, %rax
	cmpq	%rax, %rbx
	ja	.L1320
	movq	%rbx, %rdi
	call	_Znwm@PLT
	movq	%rax, %rcx
.L1313:
	movq	%rcx, %xmm0
	addq	%rcx, %rbx
	punpcklqdq	%xmm0, %xmm0
	movq	%rbx, 16(%r12)
	movups	%xmm0, (%r12)
	movq	56(%rbp), %rax
	movq	48(%rbp), %rsi
	movq	%rax, %rbx
	subq	%rsi, %rbx
	cmpq	%rsi, %rax
	je	.L1317
	movq	%rcx, %rdi
	movq	%rbx, %rdx
	call	memmove@PLT
	movq	%rax, %rcx
.L1317:
	addq	%rbx, %rcx
	movq	%r12, %rax
	popq	%rbx
	.cfi_remember_state
	.cfi_def_cfa_offset 24
	popq	%rbp
	.cfi_def_cfa_offset 16
	movq	%rcx, 8(%r12)
	popq	%r12
	.cfi_def_cfa_offset 8
	ret
	.p2align 4,,10
	.p2align 3
.L1318:
	.cfi_restore_state
	xorl	%ecx, %ecx
	jmp	.L1313
	.p2align 4,,10
	.p2align 3
.L1320:
	testq	%rbx, %rbx
	jns	.L1315
	call	_ZSt28__throw_bad_array_new_lengthv@PLT
	.p2align 4,,10
	.p2align 3
.L1315:
	call	_ZSt17__throw_bad_allocv@PLT
	.cfi_endproc
.LFE7156:
	.size	_ZN6Chunck13getVertexDataEv, .-_ZN6Chunck13getVertexDataEv
	.align 2
	.p2align 4
	.globl	_ZN5Noise8get_seedEv
	.type	_ZN5Noise8get_seedEv, @function
_ZN5Noise8get_seedEv:
.LFB7161:
	.cfi_startproc
	movl	(%rdi), %eax
	ret
	.cfi_endproc
.LFE7161:
	.size	_ZN5Noise8get_seedEv, .-_ZN5Noise8get_seedEv
	.section	.text._ZN4MeshD2Ev,"axG",@progbits,_ZN4MeshD5Ev,comdat
	.align 2
	.p2align 4
	.weak	_ZN4MeshD2Ev
	.type	_ZN4MeshD2Ev, @function
_ZN4MeshD2Ev:
.LFB7199:
	.cfi_startproc
	pushq	%rbx
	.cfi_def_cfa_offset 16
	.cfi_offset 3, -16
	movq	%rdi, %rbx
	movq	80(%rdi), %rdi
	testq	%rdi, %rdi
	je	.L1323
	movq	96(%rbx), %rsi
	subq	%rdi, %rsi
	call	_ZdlPvm@PLT
.L1323:
	movq	24(%rbx), %rdi
	testq	%rdi, %rdi
	je	.L1322
	movq	40(%rbx), %rsi
	popq	%rbx
	.cfi_remember_state
	.cfi_def_cfa_offset 8
	subq	%rdi, %rsi
	jmp	_ZdlPvm@PLT
	.p2align 4,,10
	.p2align 3
.L1322:
	.cfi_restore_state
	popq	%rbx
	.cfi_def_cfa_offset 8
	ret
	.cfi_endproc
.LFE7199:
	.size	_ZN4MeshD2Ev, .-_ZN4MeshD2Ev
	.weak	_ZN4MeshD1Ev
	.set	_ZN4MeshD1Ev,_ZN4MeshD2Ev
	.section	.rodata.str1.1
.LC57:
	.string	"maxHeight"
	.section	.text.unlikely
	.align 2
.LCOLDB58:
	.text
.LHOTB58:
	.align 2
	.p2align 4
	.globl	_ZN6Ground4drawEv
	.type	_ZN6Ground4drawEv, @function
_ZN6Ground4drawEv:
.LFB7206:
	.cfi_startproc
	.cfi_personality 0x9b,DW.ref.__gxx_personality_v0
	.cfi_lsda 0x1b,.LLSDA7206
	pushq	%r15
	.cfi_def_cfa_offset 16
	.cfi_offset 15, -16
	pushq	%r14
	.cfi_def_cfa_offset 24
	.cfi_offset 14, -24
	pushq	%r13
	.cfi_def_cfa_offset 32
	.cfi_offset 13, -32
	pushq	%r12
	.cfi_def_cfa_offset 40
	.cfi_offset 12, -40
	movq	%rdi, %r12
	pushq	%rbp
	.cfi_def_cfa_offset 48
	.cfi_offset 6, -48
	pushq	%rbx
	.cfi_def_cfa_offset 56
	.cfi_offset 3, -56
	subq	$136, %rsp
	.cfi_def_cfa_offset 192
	movq	40(%rdi), %r13
	movq	%fs:40, %rax
	movq	%rax, 120(%rsp)
	xorl	%eax, %eax
	movq	32(%rdi), %rax
	movl	20(%rax), %r14d
	.p2align 4,,10
	.p2align 3
.L1330:
.LEHB73:
	call	glGetError@PLT
	testl	%eax, %eax
	jne	.L1330
	movl	0(%r13), %edi
	leaq	.LC3(%rip), %rbp
	leaq	.LC13(%rip), %rbx
	call	*__glewUseProgram(%rip)
	jmp	.L1332
	.p2align 4,,10
	.p2align 3
.L1392:
	leaq	.LC12(%rip), %r8
	movq	%rbp, %rcx
	movq	%rbx, %rsi
	xorl	%eax, %eax
	movl	$12, %edx
	movl	$2, %edi
	call	_ZN6logger3logEiPKciS1_S1_z.constprop.0
.L1332:
	call	glGetError@PLT
	movl	%eax, %r9d
	testl	%eax, %eax
	jne	.L1392
	movl	0(%r13), %ebp
	.p2align 4,,10
	.p2align 3
.L1333:
	call	glGetError@PLT
	testl	%eax, %eax
	jne	.L1333
	movl	%ebp, %edi
	leaq	.LC57(%rip), %rsi
	leaq	.LC3(%rip), %rbp
	call	*__glewGetUniformLocation(%rip)
	leaq	.LC13(%rip), %rbx
	movl	%eax, %r13d
	jmp	.L1335
	.p2align 4,,10
	.p2align 3
.L1393:
	leaq	.LC12(%rip), %r8
	movq	%rbp, %rcx
	movq	%rbx, %rsi
	xorl	%eax, %eax
	movl	$12, %edx
	movl	$2, %edi
	call	_ZN6logger3logEiPKciS1_S1_z.constprop.0
.L1335:
	call	glGetError@PLT
	movl	%eax, %r9d
	testl	%eax, %eax
	jne	.L1393
	movd	%r14d, %xmm0
	movl	%r13d, %edi
	leaq	.LC3(%rip), %rbx
	call	*__glewUniform1f(%rip)
	movq	88(%r12), %rax
	movq	80(%r12), %r12
	leaq	.LC13(%rip), %rbp
	movq	%rax, 8(%rsp)
	cmpq	%r12, %rax
	je	.L1329
.L1362:
	movl	(%r12), %eax
	movdqu	8(%r12), %xmm1
	movq	24(%r12), %rsi
	movl	%eax, 16(%rsp)
	movq	32(%r12), %rax
	movups	%xmm1, 24(%rsp)
	movq	%rax, %r15
	subq	%rsi, %r15
	je	.L1365
	movabsq	$9223372036854775804, %rax
	cmpq	%rax, %r15
	ja	.L1394
	movq	%r15, %rdi
	call	_Znwm@PLT
.LEHE73:
	movq	24(%r12), %rsi
	movq	%rax, %r13
	movq	32(%r12), %rax
	movq	%rax, %r14
	subq	%rsi, %r14
.L1337:
	leaq	0(%r13,%r15), %rdx
	movq	%r13, 40(%rsp)
	movq	%rdx, 56(%rsp)
	cmpq	%rsi, %rax
	je	.L1340
	movq	%r14, %rdx
	movq	%r13, %rdi
	call	memmove@PLT
.L1340:
	movq	64(%r12), %rax
	addq	%r13, %r14
	movdqu	48(%r12), %xmm2
	pxor	%xmm0, %xmm0
	movq	80(%r12), %rsi
	movq	%r14, 48(%rsp)
	movq	%rax, 80(%rsp)
	movl	72(%r12), %eax
	movq	$0, 112(%rsp)
	movl	%eax, 88(%rsp)
	movq	88(%r12), %rax
	movaps	%xmm2, 64(%rsp)
	movq	%rax, %r14
	movaps	%xmm0, 96(%rsp)
	subq	%rsi, %r14
	je	.L1366
	movabsq	$9223372036854775804, %rax
	cmpq	%rax, %r14
	ja	.L1395
	movq	%r14, %rdi
.LEHB74:
	call	_Znwm@PLT
.LEHE74:
	movq	%rax, %rcx
	movq	88(%r12), %rax
	movq	80(%r12), %rsi
	movq	%rax, %r13
	subq	%rsi, %r13
.L1341:
	addq	%rcx, %r14
	movq	%rcx, 96(%rsp)
	movq	%r14, 112(%rsp)
	cmpq	%rsi, %rax
	je	.L1344
	movq	%rcx, %rdi
	movq	%r13, %rdx
	call	memmove@PLT
	movq	%rax, %rcx
.L1344:
	addq	%r13, %rcx
	leaq	16(%rsp), %r13
	movq	%r13, %rdi
	movq	%rcx, 104(%rsp)
.LEHB75:
	call	_ZN11ArrayBuffer4BindEv
	.p2align 4,,10
	.p2align 3
.L1345:
	call	glGetError@PLT
	testl	%eax, %eax
	jne	.L1345
	movl	84(%rsp), %esi
	xorl	%ecx, %ecx
	movl	$5125, %edx
	movl	$4, %edi
	call	glDrawElements@PLT
	jmp	.L1349
	.p2align 4,,10
	.p2align 3
.L1396:
	leaq	.LC12(%rip), %r8
	movq	%rbx, %rcx
	movq	%rbp, %rsi
	xorl	%eax, %eax
	movl	$12, %edx
	movl	$2, %edi
	call	_ZN6logger3logEiPKciS1_S1_z.constprop.0
.L1349:
	call	glGetError@PLT
	movl	%eax, %r9d
	testl	%eax, %eax
	jne	.L1396
	.p2align 4,,10
	.p2align 3
.L1348:
	call	glGetError@PLT
	testl	%eax, %eax
	jne	.L1348
	xorl	%edi, %edi
	call	*__glewBindVertexArray(%rip)
	jmp	.L1351
	.p2align 4,,10
	.p2align 3
.L1397:
	leaq	.LC12(%rip), %r8
	movq	%rbx, %rcx
	movq	%rbp, %rsi
	xorl	%eax, %eax
	movl	$12, %edx
	movl	$2, %edi
	call	_ZN6logger3logEiPKciS1_S1_z.constprop.0
.L1351:
	call	glGetError@PLT
	movl	%eax, %r9d
	testl	%eax, %eax
	jne	.L1397
	cmpq	$0, 24(%rsp)
	je	.L1352
	.p2align 4,,10
	.p2align 3
.L1353:
	call	glGetError@PLT
	testl	%eax, %eax
	jne	.L1353
	xorl	%esi, %esi
	movl	$34962, %edi
	call	*__glewBindBuffer(%rip)
	jmp	.L1354
	.p2align 4,,10
	.p2align 3
.L1398:
	leaq	.LC12(%rip), %r8
	movq	%rbx, %rcx
	movq	%rbp, %rsi
	xorl	%eax, %eax
	movl	$12, %edx
	movl	$2, %edi
	call	_ZN6logger3logEiPKciS1_S1_z.constprop.0
.L1354:
	call	glGetError@PLT
	movl	%eax, %r9d
	testl	%eax, %eax
	jne	.L1398
.L1352:
	cmpq	$0, 32(%rsp)
	je	.L1355
	.p2align 4,,10
	.p2align 3
.L1356:
	call	glGetError@PLT
	testl	%eax, %eax
	jne	.L1356
	xorl	%esi, %esi
	movl	$34963, %edi
	call	*__glewBindBuffer(%rip)
	jmp	.L1357
	.p2align 4,,10
	.p2align 3
.L1399:
	leaq	.LC12(%rip), %r8
	movq	%rbx, %rcx
	movq	%rbp, %rsi
	xorl	%eax, %eax
	movl	$12, %edx
	movl	$2, %edi
	call	_ZN6logger3logEiPKciS1_S1_z.constprop.0
.L1357:
	call	glGetError@PLT
.LEHE75:
	movl	%eax, %r9d
	testl	%eax, %eax
	jne	.L1399
.L1355:
	movq	96(%rsp), %rdi
	testq	%rdi, %rdi
	je	.L1358
	movq	112(%rsp), %rsi
	subq	%rdi, %rsi
	call	_ZdlPvm@PLT
.L1358:
	movq	40(%rsp), %rdi
	testq	%rdi, %rdi
	je	.L1359
	movq	56(%rsp), %rsi
	addq	$104, %r12
	subq	%rdi, %rsi
	call	_ZdlPvm@PLT
	cmpq	%r12, 8(%rsp)
	jne	.L1362
.L1329:
	movq	120(%rsp), %rax
	subq	%fs:40, %rax
	jne	.L1400
	addq	$136, %rsp
	.cfi_remember_state
	.cfi_def_cfa_offset 56
	popq	%rbx
	.cfi_def_cfa_offset 48
	popq	%rbp
	.cfi_def_cfa_offset 40
	popq	%r12
	.cfi_def_cfa_offset 32
	popq	%r13
	.cfi_def_cfa_offset 24
	popq	%r14
	.cfi_def_cfa_offset 16
	popq	%r15
	.cfi_def_cfa_offset 8
	ret
	.p2align 4,,10
	.p2align 3
.L1365:
	.cfi_restore_state
	xorl	%r14d, %r14d
	xorl	%r13d, %r13d
	jmp	.L1337
	.p2align 4,,10
	.p2align 3
.L1366:
	xorl	%r13d, %r13d
	xorl	%ecx, %ecx
	jmp	.L1341
	.p2align 4,,10
	.p2align 3
.L1359:
	addq	$104, %r12
	cmpq	%r12, 8(%rsp)
	jne	.L1362
	jmp	.L1329
.L1394:
	testq	%r15, %r15
	jns	.L1339
.LEHB76:
	call	_ZSt28__throw_bad_array_new_lengthv@PLT
.LEHE76:
.L1395:
	testq	%r14, %r14
	jns	.L1343
.LEHB77:
	call	_ZSt28__throw_bad_array_new_lengthv@PLT
.LEHE77:
.L1339:
.LEHB78:
	call	_ZSt17__throw_bad_allocv@PLT
.LEHE78:
.L1343:
.LEHB79:
	call	_ZSt17__throw_bad_allocv@PLT
.LEHE79:
.L1400:
	call	__stack_chk_fail@PLT
.L1368:
	movq	%rax, %rbp
	jmp	.L1346
.L1367:
	movq	%rax, %rbp
	jmp	.L1363
	.section	.gcc_except_table
.LLSDA7206:
	.byte	0xff
	.byte	0xff
	.byte	0x1
	.uleb128 .LLSDACSE7206-.LLSDACSB7206
.LLSDACSB7206:
	.uleb128 .LEHB73-.LFB7206
	.uleb128 .LEHE73-.LEHB73
	.uleb128 0
	.uleb128 0
	.uleb128 .LEHB74-.LFB7206
	.uleb128 .LEHE74-.LEHB74
	.uleb128 .L1368-.LFB7206
	.uleb128 0
	.uleb128 .LEHB75-.LFB7206
	.uleb128 .LEHE75-.LEHB75
	.uleb128 .L1367-.LFB7206
	.uleb128 0
	.uleb128 .LEHB76-.LFB7206
	.uleb128 .LEHE76-.LEHB76
	.uleb128 0
	.uleb128 0
	.uleb128 .LEHB77-.LFB7206
	.uleb128 .LEHE77-.LEHB77
	.uleb128 .L1368-.LFB7206
	.uleb128 0
	.uleb128 .LEHB78-.LFB7206
	.uleb128 .LEHE78-.LEHB78
	.uleb128 0
	.uleb128 0
	.uleb128 .LEHB79-.LFB7206
	.uleb128 .LEHE79-.LEHB79
	.uleb128 .L1368-.LFB7206
	.uleb128 0
.LLSDACSE7206:
	.text
	.cfi_endproc
	.section	.text.unlikely
	.cfi_startproc
	.cfi_personality 0x9b,DW.ref.__gxx_personality_v0
	.cfi_lsda 0x1b,.LLSDAC7206
	.type	_ZN6Ground4drawEv.cold, @function
_ZN6Ground4drawEv.cold:
.LFSB7206:
.L1346:
	.cfi_def_cfa_offset 192
	.cfi_offset 3, -56
	.cfi_offset 6, -48
	.cfi_offset 12, -40
	.cfi_offset 13, -32
	.cfi_offset 14, -24
	.cfi_offset 15, -16
	testq	%r13, %r13
	je	.L1391
	movq	%r15, %rsi
	movq	%r13, %rdi
	call	_ZdlPvm@PLT
	jmp	.L1391
.L1363:
	movq	%r13, %rdi
	call	_ZN4MeshD1Ev
.L1391:
	movq	%rbp, %rdi
.LEHB80:
	call	_Unwind_Resume@PLT
.LEHE80:
	.cfi_endproc
.LFE7206:
	.section	.gcc_except_table
.LLSDAC7206:
	.byte	0xff
	.byte	0xff
	.byte	0x1
	.uleb128 .LLSDACSEC7206-.LLSDACSBC7206
.LLSDACSBC7206:
	.uleb128 .LEHB80-.LCOLDB58
	.uleb128 .LEHE80-.LEHB80
	.uleb128 0
	.uleb128 0
.LLSDACSEC7206:
	.section	.text.unlikely
	.text
	.size	_ZN6Ground4drawEv, .-_ZN6Ground4drawEv
	.section	.text.unlikely
	.size	_ZN6Ground4drawEv.cold, .-_ZN6Ground4drawEv.cold
.LCOLDE58:
	.text
.LHOTE58:
	.section	.text._ZN5ImguiD2Ev,"axG",@progbits,_ZN5ImguiD5Ev,comdat
	.align 2
	.p2align 4
	.weak	_ZN5ImguiD2Ev
	.type	_ZN5ImguiD2Ev, @function
_ZN5ImguiD2Ev:
.LFB7221:
	.cfi_startproc
	.cfi_personality 0x9b,DW.ref.__gxx_personality_v0
	.cfi_lsda 0x1b,.LLSDA7221
	pushq	%rbx
	.cfi_def_cfa_offset 16
	.cfi_offset 3, -16
	movq	%rdi, %rbx
	movq	5464(%rdi), %rdi
	testq	%rdi, %rdi
	je	.L1402
	movq	5480(%rbx), %rsi
	subq	%rdi, %rsi
	call	_ZdlPvm@PLT
.L1402:
	movq	5456(%rbx), %rdi
	testq	%rdi, %rdi
	je	.L1401
	call	_ZN5ImGui7MemFreeEPv@PLT
.L1401:
	popq	%rbx
	.cfi_def_cfa_offset 8
	ret
	.cfi_endproc
.LFE7221:
	.section	.gcc_except_table
.LLSDA7221:
	.byte	0xff
	.byte	0xff
	.byte	0x1
	.uleb128 .LLSDACSE7221-.LLSDACSB7221
.LLSDACSB7221:
.LLSDACSE7221:
	.section	.text._ZN5ImguiD2Ev,"axG",@progbits,_ZN5ImguiD5Ev,comdat
	.size	_ZN5ImguiD2Ev, .-_ZN5ImguiD2Ev
	.weak	_ZN5ImguiD1Ev
	.set	_ZN5ImguiD1Ev,_ZN5ImguiD2Ev
	.section	.rodata._ZNSt6vectorIfSaIfEE7reserveEm.str1.1,"aMS",@progbits,1
.LC59:
	.string	"vector::reserve"
	.section	.text._ZNSt6vectorIfSaIfEE7reserveEm,"axG",@progbits,_ZNSt6vectorIfSaIfEE7reserveEm,comdat
	.align 2
	.p2align 4
	.weak	_ZNSt6vectorIfSaIfEE7reserveEm
	.type	_ZNSt6vectorIfSaIfEE7reserveEm, @function
_ZNSt6vectorIfSaIfEE7reserveEm:
.LFB7846:
	.cfi_startproc
	movq	%rsi, %rax
	pushq	%r14
	.cfi_def_cfa_offset 16
	.cfi_offset 14, -16
	shrq	$61, %rax
	pushq	%r13
	.cfi_def_cfa_offset 24
	.cfi_offset 13, -24
	pushq	%r12
	.cfi_def_cfa_offset 32
	.cfi_offset 12, -32
	pushq	%rbp
	.cfi_def_cfa_offset 40
	.cfi_offset 6, -40
	pushq	%rbx
	.cfi_def_cfa_offset 48
	.cfi_offset 3, -48
	jne	.L1423
	movq	(%rdi), %rbp
	movq	16(%rdi), %rax
	movq	%rdi, %rbx
	subq	%rbp, %rax
	sarq	$2, %rax
	cmpq	%rax, %rsi
	jbe	.L1411
	movq	8(%rdi), %r13
	leaq	0(,%rsi,4), %r14
	subq	%rbp, %r13
	testq	%rsi, %rsi
	je	.L1418
	movq	%r14, %rdi
	call	_Znwm@PLT
	movq	(%rbx), %rbp
	movq	8(%rbx), %rdx
	movq	%rax, %r12
	subq	%rbp, %rdx
	testq	%rdx, %rdx
	jg	.L1424
.L1415:
	testq	%rbp, %rbp
	jne	.L1425
.L1417:
	addq	%r12, %r13
	movq	%r12, %xmm0
	addq	%r14, %r12
	movq	%r13, %xmm1
	movq	%r12, 16(%rbx)
	punpcklqdq	%xmm1, %xmm0
	movups	%xmm0, (%rbx)
.L1411:
	popq	%rbx
	.cfi_remember_state
	.cfi_def_cfa_offset 40
	popq	%rbp
	.cfi_def_cfa_offset 32
	popq	%r12
	.cfi_def_cfa_offset 24
	popq	%r13
	.cfi_def_cfa_offset 16
	popq	%r14
	.cfi_def_cfa_offset 8
	ret
	.p2align 4,,10
	.p2align 3
.L1418:
	.cfi_restore_state
	movq	%r13, %rdx
	xorl	%r12d, %r12d
	testq	%rdx, %rdx
	jle	.L1415
.L1424:
	movq	%rbp, %rsi
	movq	%r12, %rdi
	call	memmove@PLT
	movq	16(%rbx), %rsi
	subq	%rbp, %rsi
.L1416:
	movq	%rbp, %rdi
	call	_ZdlPvm@PLT
	jmp	.L1417
	.p2align 4,,10
	.p2align 3
.L1425:
	movq	16(%rbx), %rsi
	subq	%rbp, %rsi
	jmp	.L1416
.L1423:
	leaq	.LC59(%rip), %rdi
	call	_ZSt20__throw_length_errorPKc@PLT
	.cfi_endproc
.LFE7846:
	.size	_ZNSt6vectorIfSaIfEE7reserveEm, .-_ZNSt6vectorIfSaIfEE7reserveEm
	.section	.text._ZNSt6vectorISt10shared_ptrI6ChunckESaIS2_EED2Ev,"axG",@progbits,_ZNSt6vectorISt10shared_ptrI6ChunckESaIS2_EED5Ev,comdat
	.align 2
	.p2align 4
	.weak	_ZNSt6vectorISt10shared_ptrI6ChunckESaIS2_EED2Ev
	.type	_ZNSt6vectorISt10shared_ptrI6ChunckESaIS2_EED2Ev, @function
_ZNSt6vectorISt10shared_ptrI6ChunckESaIS2_EED2Ev:
.LFB7891:
	.cfi_startproc
	pushq	%r13
	.cfi_def_cfa_offset 16
	.cfi_offset 13, -16
	movq	%rdi, %r13
	pushq	%r12
	.cfi_def_cfa_offset 24
	.cfi_offset 12, -24
	pushq	%rbp
	.cfi_def_cfa_offset 32
	.cfi_offset 6, -32
	pushq	%rbx
	.cfi_def_cfa_offset 40
	.cfi_offset 3, -40
	subq	$8, %rsp
	.cfi_def_cfa_offset 48
	movq	8(%rdi), %rbx
	movq	(%rdi), %rbp
	cmpq	%rbp, %rbx
	jne	.L1435
	jmp	.L1427
	.p2align 4,,10
	.p2align 3
.L1429:
	addq	$16, %rbp
	cmpq	%rbp, %rbx
	je	.L1439
.L1435:
	movq	8(%rbp), %r12
	testq	%r12, %r12
	je	.L1429
	cmpb	$0, __libc_single_threaded(%rip)
	je	.L1430
	movl	8(%r12), %eax
	leal	-1(%rax), %edx
	movl	%edx, 8(%r12)
.L1431:
	cmpl	$1, %eax
	jne	.L1429
	movq	(%r12), %rax
	movq	%r12, %rdi
	call	*16(%rax)
	cmpb	$0, __libc_single_threaded(%rip)
	je	.L1433
	movl	12(%r12), %eax
	leal	-1(%rax), %edx
	movl	%edx, 12(%r12)
.L1434:
	cmpl	$1, %eax
	jne	.L1429
	movq	(%r12), %rax
	addq	$16, %rbp
	movq	%r12, %rdi
	call	*24(%rax)
	cmpq	%rbp, %rbx
	jne	.L1435
	.p2align 4,,10
	.p2align 3
.L1439:
	movq	0(%r13), %rbp
.L1427:
	testq	%rbp, %rbp
	je	.L1426
	movq	16(%r13), %rsi
	addq	$8, %rsp
	.cfi_remember_state
	.cfi_def_cfa_offset 40
	movq	%rbp, %rdi
	popq	%rbx
	.cfi_def_cfa_offset 32
	subq	%rbp, %rsi
	popq	%rbp
	.cfi_def_cfa_offset 24
	popq	%r12
	.cfi_def_cfa_offset 16
	popq	%r13
	.cfi_def_cfa_offset 8
	jmp	_ZdlPvm@PLT
	.p2align 4,,10
	.p2align 3
.L1430:
	.cfi_restore_state
	movl	$-1, %eax
	lock xaddl	%eax, 8(%r12)
	jmp	.L1431
	.p2align 4,,10
	.p2align 3
.L1433:
	movl	$-1, %eax
	lock xaddl	%eax, 12(%r12)
	jmp	.L1434
	.p2align 4,,10
	.p2align 3
.L1426:
	addq	$8, %rsp
	.cfi_def_cfa_offset 40
	popq	%rbx
	.cfi_def_cfa_offset 32
	popq	%rbp
	.cfi_def_cfa_offset 24
	popq	%r12
	.cfi_def_cfa_offset 16
	popq	%r13
	.cfi_def_cfa_offset 8
	ret
	.cfi_endproc
.LFE7891:
	.size	_ZNSt6vectorISt10shared_ptrI6ChunckESaIS2_EED2Ev, .-_ZNSt6vectorISt10shared_ptrI6ChunckESaIS2_EED2Ev
	.weak	_ZNSt6vectorISt10shared_ptrI6ChunckESaIS2_EED1Ev
	.set	_ZNSt6vectorISt10shared_ptrI6ChunckESaIS2_EED1Ev,_ZNSt6vectorISt10shared_ptrI6ChunckESaIS2_EED2Ev
	.section	.text._ZNSt6vectorI4MeshSaIS0_EED2Ev,"axG",@progbits,_ZNSt6vectorI4MeshSaIS0_EED5Ev,comdat
	.align 2
	.p2align 4
	.weak	_ZNSt6vectorI4MeshSaIS0_EED2Ev
	.type	_ZNSt6vectorI4MeshSaIS0_EED2Ev, @function
_ZNSt6vectorI4MeshSaIS0_EED2Ev:
.LFB7903:
	.cfi_startproc
	pushq	%r12
	.cfi_def_cfa_offset 16
	.cfi_offset 12, -16
	movq	%rdi, %r12
	pushq	%rbp
	.cfi_def_cfa_offset 24
	.cfi_offset 6, -24
	pushq	%rbx
	.cfi_def_cfa_offset 32
	.cfi_offset 3, -32
	movq	8(%rdi), %rbx
	movq	(%rdi), %rbp
	cmpq	%rbp, %rbx
	je	.L1441
	.p2align 4,,10
	.p2align 3
.L1446:
	movq	80(%rbp), %rdi
	testq	%rdi, %rdi
	je	.L1442
	movq	96(%rbp), %rsi
	subq	%rdi, %rsi
	call	_ZdlPvm@PLT
.L1442:
	movq	24(%rbp), %rdi
	testq	%rdi, %rdi
	je	.L1443
	movq	40(%rbp), %rsi
	addq	$104, %rbp
	subq	%rdi, %rsi
	call	_ZdlPvm@PLT
	cmpq	%rbp, %rbx
	jne	.L1446
.L1445:
	movq	(%r12), %rbp
.L1441:
	testq	%rbp, %rbp
	je	.L1440
	movq	16(%r12), %rsi
	popq	%rbx
	.cfi_remember_state
	.cfi_def_cfa_offset 24
	movq	%rbp, %rdi
	subq	%rbp, %rsi
	popq	%rbp
	.cfi_def_cfa_offset 16
	popq	%r12
	.cfi_def_cfa_offset 8
	jmp	_ZdlPvm@PLT
	.p2align 4,,10
	.p2align 3
.L1443:
	.cfi_restore_state
	addq	$104, %rbp
	cmpq	%rbp, %rbx
	jne	.L1446
	jmp	.L1445
	.p2align 4,,10
	.p2align 3
.L1440:
	popq	%rbx
	.cfi_def_cfa_offset 24
	popq	%rbp
	.cfi_def_cfa_offset 16
	popq	%r12
	.cfi_def_cfa_offset 8
	ret
	.cfi_endproc
.LFE7903:
	.size	_ZNSt6vectorI4MeshSaIS0_EED2Ev, .-_ZNSt6vectorI4MeshSaIS0_EED2Ev
	.weak	_ZNSt6vectorI4MeshSaIS0_EED1Ev
	.set	_ZNSt6vectorI4MeshSaIS0_EED1Ev,_ZNSt6vectorI4MeshSaIS0_EED2Ev
	.section	.text._ZNSt6vectorI4MeshSaIS0_EE7reserveEm,"axG",@progbits,_ZNSt6vectorI4MeshSaIS0_EE7reserveEm,comdat
	.align 2
	.p2align 4
	.weak	_ZNSt6vectorI4MeshSaIS0_EE7reserveEm
	.type	_ZNSt6vectorI4MeshSaIS0_EE7reserveEm, @function
_ZNSt6vectorI4MeshSaIS0_EE7reserveEm:
.LFB7910:
	.cfi_startproc
	movabsq	$88686269585142075, %rax
	pushq	%r15
	.cfi_def_cfa_offset 16
	.cfi_offset 15, -16
	pushq	%r14
	.cfi_def_cfa_offset 24
	.cfi_offset 14, -24
	pushq	%r13
	.cfi_def_cfa_offset 32
	.cfi_offset 13, -32
	pushq	%r12
	.cfi_def_cfa_offset 40
	.cfi_offset 12, -40
	pushq	%rbp
	.cfi_def_cfa_offset 48
	.cfi_offset 6, -48
	pushq	%rbx
	.cfi_def_cfa_offset 56
	.cfi_offset 3, -56
	subq	$24, %rsp
	.cfi_def_cfa_offset 80
	cmpq	%rax, %rsi
	ja	.L1468
	movq	(%rdi), %rbp
	movq	16(%rdi), %rax
	movq	%rdi, %r15
	movabsq	$5675921253449092805, %rdx
	subq	%rbp, %rax
	sarq	$3, %rax
	imulq	%rdx, %rax
	cmpq	%rax, %rsi
	jbe	.L1452
	movq	8(%rdi), %r14
	xorl	%r12d, %r12d
	movq	%r14, %rax
	subq	%rbp, %rax
	movq	%rax, 8(%rsp)
	leaq	(%rsi,%rsi,2), %rax
	leaq	(%rsi,%rax,4), %r13
	salq	$3, %r13
	testq	%rsi, %rsi
	je	.L1455
	movq	%r13, %rdi
	call	_Znwm@PLT
	movq	8(%r15), %r14
	movq	(%r15), %rbp
	movq	%rax, %r12
.L1455:
	cmpq	%rbp, %r14
	je	.L1456
	movq	%r12, %rbx
	pxor	%xmm0, %xmm0
	.p2align 4,,10
	.p2align 3
.L1460:
	movl	0(%rbp), %eax
	movl	%eax, (%rbx)
	movq	8(%rbp), %rax
	movq	%rax, 8(%rbx)
	movq	16(%rbp), %rax
	movq	%rax, 16(%rbx)
	movq	24(%rbp), %rax
	movq	%rax, 24(%rbx)
	movq	32(%rbp), %rax
	movups	%xmm0, 24(%rbp)
	movq	%rax, 32(%rbx)
	movq	40(%rbp), %rax
	movq	$0, 40(%rbp)
	movq	%rax, 40(%rbx)
	movq	48(%rbp), %rax
	movdqu	80(%rbp), %xmm1
	movq	%rax, 48(%rbx)
	movq	56(%rbp), %rax
	movq	%rax, 56(%rbx)
	movq	64(%rbp), %rax
	movq	%rax, 64(%rbx)
	movl	72(%rbp), %eax
	movups	%xmm1, 80(%rbx)
	movl	%eax, 72(%rbx)
	movq	96(%rbp), %rax
	movq	%rax, 96(%rbx)
	movq	24(%rbp), %rdi
	testq	%rdi, %rdi
	je	.L1457
	movq	40(%rbp), %rsi
	addq	$104, %rbp
	addq	$104, %rbx
	subq	%rdi, %rsi
	call	_ZdlPvm@PLT
	cmpq	%rbp, %r14
	pxor	%xmm0, %xmm0
	jne	.L1460
.L1459:
	movq	(%r15), %rbp
.L1456:
	testq	%rbp, %rbp
	je	.L1461
	movq	16(%r15), %rsi
	movq	%rbp, %rdi
	subq	%rbp, %rsi
	call	_ZdlPvm@PLT
.L1461:
	movq	8(%rsp), %r14
	movq	%r12, %xmm0
	addq	%r12, %r14
	addq	%r13, %r12
	movq	%r14, %xmm2
	movq	%r12, 16(%r15)
	punpcklqdq	%xmm2, %xmm0
	movups	%xmm0, (%r15)
.L1452:
	addq	$24, %rsp
	.cfi_remember_state
	.cfi_def_cfa_offset 56
	popq	%rbx
	.cfi_def_cfa_offset 48
	popq	%rbp
	.cfi_def_cfa_offset 40
	popq	%r12
	.cfi_def_cfa_offset 32
	popq	%r13
	.cfi_def_cfa_offset 24
	popq	%r14
	.cfi_def_cfa_offset 16
	popq	%r15
	.cfi_def_cfa_offset 8
	ret
	.p2align 4,,10
	.p2align 3
.L1457:
	.cfi_restore_state
	addq	$104, %rbp
	addq	$104, %rbx
	cmpq	%r14, %rbp
	jne	.L1460
	jmp	.L1459
.L1468:
	leaq	.LC59(%rip), %rdi
	call	_ZSt20__throw_length_errorPKc@PLT
	.cfi_endproc
.LFE7910:
	.size	_ZNSt6vectorI4MeshSaIS0_EE7reserveEm, .-_ZNSt6vectorI4MeshSaIS0_EE7reserveEm
	.section	.text._ZNSt6vectorIjSaIjEE17_M_realloc_insertIJRKjEEEvN9__gnu_cxx17__normal_iteratorIPjS1_EEDpOT_,"axG",@progbits,_ZNSt6vectorIjSaIjEE17_M_realloc_insertIJRKjEEEvN9__gnu_cxx17__normal_iteratorIPjS1_EEDpOT_,comdat
	.align 2
	.p2align 4
	.weak	_ZNSt6vectorIjSaIjEE17_M_realloc_insertIJRKjEEEvN9__gnu_cxx17__normal_iteratorIPjS1_EEDpOT_
	.type	_ZNSt6vectorIjSaIjEE17_M_realloc_insertIJRKjEEEvN9__gnu_cxx17__normal_iteratorIPjS1_EEDpOT_, @function
_ZNSt6vectorIjSaIjEE17_M_realloc_insertIJRKjEEEvN9__gnu_cxx17__normal_iteratorIPjS1_EEDpOT_:
.LFB8099:
	.cfi_startproc
	pushq	%r15
	.cfi_def_cfa_offset 16
	.cfi_offset 15, -16
	movq	%rdx, %r15
	movabsq	$2305843009213693951, %rdx
	pushq	%r14
	.cfi_def_cfa_offset 24
	.cfi_offset 14, -24
	pushq	%r13
	.cfi_def_cfa_offset 32
	.cfi_offset 13, -32
	pushq	%r12
	.cfi_def_cfa_offset 40
	.cfi_offset 12, -40
	pushq	%rbp
	.cfi_def_cfa_offset 48
	.cfi_offset 6, -48
	pushq	%rbx
	.cfi_def_cfa_offset 56
	.cfi_offset 3, -56
	subq	$40, %rsp
	.cfi_def_cfa_offset 96
	movq	8(%rdi), %r12
	movq	(%rdi), %r14
	movq	%r12, %rax
	subq	%r14, %rax
	sarq	$2, %rax
	cmpq	%rdx, %rax
	je	.L1484
	testq	%rax, %rax
	movl	$1, %edx
	movq	%rdi, %rbp
	movq	%rsi, %r13
	cmovne	%rax, %rdx
	xorl	%ecx, %ecx
	addq	%rdx, %rax
	movq	%rsi, %rdx
	setc	%cl
	subq	%r14, %rdx
	testq	%rcx, %rcx
	jne	.L1481
	testq	%rax, %rax
	jne	.L1474
	xorl	%ebx, %ebx
	xorl	%edi, %edi
.L1480:
	movl	(%r15), %eax
	leaq	4(%rdi,%rdx), %r8
	subq	%r13, %r12
	movq	%rdi, %xmm0
	movq	16(%rbp), %r15
	movl	%eax, (%rdi,%rdx)
	leaq	(%r8,%r12), %rax
	movq	%rax, %xmm1
	punpcklqdq	%xmm1, %xmm0
	movaps	%xmm0, (%rsp)
	testq	%rdx, %rdx
	jg	.L1485
	testq	%r12, %r12
	jg	.L1476
	testq	%r14, %r14
	jne	.L1479
.L1477:
	movdqa	(%rsp), %xmm2
	movq	%rbx, 16(%rbp)
	movups	%xmm2, 0(%rbp)
	addq	$40, %rsp
	.cfi_remember_state
	.cfi_def_cfa_offset 56
	popq	%rbx
	.cfi_def_cfa_offset 48
	popq	%rbp
	.cfi_def_cfa_offset 40
	popq	%r12
	.cfi_def_cfa_offset 32
	popq	%r13
	.cfi_def_cfa_offset 24
	popq	%r14
	.cfi_def_cfa_offset 16
	popq	%r15
	.cfi_def_cfa_offset 8
	ret
	.p2align 4,,10
	.p2align 3
.L1485:
	.cfi_restore_state
	movq	%r14, %rsi
	movq	%r8, 24(%rsp)
	call	memmove@PLT
	testq	%r12, %r12
	movq	24(%rsp), %r8
	jg	.L1476
.L1479:
	movq	%r15, %rsi
	movq	%r14, %rdi
	subq	%r14, %rsi
	call	_ZdlPvm@PLT
	jmp	.L1477
	.p2align 4,,10
	.p2align 3
.L1476:
	movq	%r12, %rdx
	movq	%r13, %rsi
	movq	%r8, %rdi
	call	memcpy@PLT
	testq	%r14, %r14
	je	.L1477
	jmp	.L1479
	.p2align 4,,10
	.p2align 3
.L1481:
	movabsq	$9223372036854775804, %rbx
.L1473:
	movq	%rbx, %rdi
	movq	%rdx, (%rsp)
	call	_Znwm@PLT
	movq	(%rsp), %rdx
	movq	%rax, %rdi
	addq	%rax, %rbx
	jmp	.L1480
	.p2align 4,,10
	.p2align 3
.L1474:
	movabsq	$2305843009213693951, %rcx
	cmpq	%rcx, %rax
	cmova	%rcx, %rax
	leaq	0(,%rax,4), %rbx
	jmp	.L1473
.L1484:
	leaq	.LC38(%rip), %rdi
	call	_ZSt20__throw_length_errorPKc@PLT
	.cfi_endproc
.LFE8099:
	.size	_ZNSt6vectorIjSaIjEE17_M_realloc_insertIJRKjEEEvN9__gnu_cxx17__normal_iteratorIPjS1_EEDpOT_, .-_ZNSt6vectorIjSaIjEE17_M_realloc_insertIJRKjEEEvN9__gnu_cxx17__normal_iteratorIPjS1_EEDpOT_
	.text
	.align 2
	.p2align 4
	.globl	_ZN11ArrayBuffer9setLayoutEPjj
	.type	_ZN11ArrayBuffer9setLayoutEPjj, @function
_ZN11ArrayBuffer9setLayoutEPjj:
.LFB3326:
	.cfi_startproc
	pushq	%r15
	.cfi_def_cfa_offset 16
	.cfi_offset 15, -16
	movl	%edx, %r15d
	pushq	%r14
	.cfi_def_cfa_offset 24
	.cfi_offset 14, -24
	pushq	%r13
	.cfi_def_cfa_offset 32
	.cfi_offset 13, -32
	pushq	%r12
	.cfi_def_cfa_offset 40
	.cfi_offset 12, -40
	movq	%rdi, %r12
	pushq	%rbp
	.cfi_def_cfa_offset 48
	.cfi_offset 6, -48
	pushq	%rbx
	.cfi_def_cfa_offset 56
	.cfi_offset 3, -56
	movq	%rsi, %rbx
	subq	$24, %rsp
	.cfi_def_cfa_offset 80
	call	_ZN11ArrayBuffer4BindEv
	movq	24(%r12), %rax
	movq	32(%r12), %rsi
	cmpq	%rsi, %rax
	je	.L1487
	movq	%rax, 32(%r12)
	movq	%rax, %rsi
	testl	%r15d, %r15d
	je	.L1486
.L1488:
	leaq	24(%r12), %r13
	xorl	%ebp, %ebp
	xorl	%r14d, %r14d
	.p2align 4,,10
	.p2align 3
.L1493:
	cmpq	%rsi, 40(%r12)
	je	.L1490
	movl	(%rbx), %eax
	addq	$4, %rsi
	addl	$1, %ebp
	addq	$4, %rbx
	movl	%eax, -4(%rsi)
	addl	%eax, %r14d
	movq	%rsi, 32(%r12)
	cmpl	%ebp, %r15d
	ja	.L1493
.L1492:
	leal	0(,%r14,4), %eax
	movl	%eax, 12(%rsp)
	cmpq	%rsi, 24(%r12)
	je	.L1486
	xorl	%r13d, %r13d
	xorl	%r15d, %r15d
	leaq	.LC3(%rip), %rbp
	xorl	%r14d, %r14d
	leaq	.LC13(%rip), %rbx
	.p2align 4,,10
	.p2align 3
.L1494:
	call	glGetError@PLT
	testl	%eax, %eax
	jne	.L1494
	movl	%r13d, %edi
	call	*__glewEnableVertexAttribArray(%rip)
	jmp	.L1496
	.p2align 4,,10
	.p2align 3
.L1510:
	leaq	.LC12(%rip), %r8
	movq	%rbp, %rcx
	movq	%rbx, %rsi
	xorl	%eax, %eax
	movl	$12, %edx
	movl	$2, %edi
	call	_ZN6logger3logEiPKciS1_S1_z.constprop.0
.L1496:
	call	glGetError@PLT
	movl	%eax, %r9d
	testl	%eax, %eax
	jne	.L1510
	.p2align 4,,10
	.p2align 3
.L1495:
	call	glGetError@PLT
	testl	%eax, %eax
	jne	.L1495
	leaq	0(,%r14,4), %rax
	movl	%r15d, %r9d
	xorl	%ecx, %ecx
	movl	%r13d, %edi
	movq	%rax, (%rsp)
	movq	24(%r12), %rax
	salq	$2, %r9
	movl	$5126, %edx
	movl	12(%rsp), %r8d
	movl	(%rax,%r14,4), %esi
	call	*__glewVertexAttribPointer(%rip)
	jmp	.L1498
	.p2align 4,,10
	.p2align 3
.L1511:
	leaq	.LC12(%rip), %r8
	movq	%rbp, %rcx
	movq	%rbx, %rsi
	xorl	%eax, %eax
	movl	$12, %edx
	movl	$2, %edi
	call	_ZN6logger3logEiPKciS1_S1_z.constprop.0
.L1498:
	call	glGetError@PLT
	movl	%eax, %r9d
	testl	%eax, %eax
	jne	.L1511
	movq	24(%r12), %rdx
	movq	(%rsp), %rax
	leal	1(%r13), %r14d
	movq	%r14, %r13
	addl	(%rdx,%rax), %r15d
	movq	32(%r12), %rax
	subq	%rdx, %rax
	sarq	$2, %rax
	cmpq	%rax, %r14
	jb	.L1494
.L1486:
	addq	$24, %rsp
	.cfi_remember_state
	.cfi_def_cfa_offset 56
	popq	%rbx
	.cfi_def_cfa_offset 48
	popq	%rbp
	.cfi_def_cfa_offset 40
	popq	%r12
	.cfi_def_cfa_offset 32
	popq	%r13
	.cfi_def_cfa_offset 24
	popq	%r14
	.cfi_def_cfa_offset 16
	popq	%r15
	.cfi_def_cfa_offset 8
	ret
	.p2align 4,,10
	.p2align 3
.L1490:
	.cfi_restore_state
	movq	%rbx, %rdx
	movq	%r13, %rdi
	addl	$1, %ebp
	addq	$4, %rbx
	call	_ZNSt6vectorIjSaIjEE17_M_realloc_insertIJRKjEEEvN9__gnu_cxx17__normal_iteratorIPjS1_EEDpOT_
	addl	-4(%rbx), %r14d
	movq	32(%r12), %rsi
	cmpl	%ebp, %r15d
	ja	.L1493
	jmp	.L1492
.L1487:
	testl	%r15d, %r15d
	jne	.L1488
	jmp	.L1486
	.cfi_endproc
.LFE3326:
	.size	_ZN11ArrayBuffer9setLayoutEPjj, .-_ZN11ArrayBuffer9setLayoutEPjj
	.section	.text.unlikely
	.align 2
.LCOLDB60:
	.text
.LHOTB60:
	.align 2
	.p2align 4
	.globl	_ZN4MeshC2EjSt6vectorIjSaIjEES2_i
	.type	_ZN4MeshC2EjSt6vectorIjSaIjEES2_i, @function
_ZN4MeshC2EjSt6vectorIjSaIjEES2_i:
.LFB4479:
	.cfi_startproc
	.cfi_personality 0x9b,DW.ref.__gxx_personality_v0
	.cfi_lsda 0x1b,.LLSDA4479
	pushq	%rbp
	.cfi_def_cfa_offset 16
	.cfi_offset 6, -16
	pxor	%xmm0, %xmm0
	movq	%rsp, %rbp
	.cfi_def_cfa_register 6
	pushq	%r15
	.cfi_offset 15, -24
	movq	%rdx, %r15
	pushq	%r14
	pushq	%r13
	pushq	%r12
	.cfi_offset 14, -32
	.cfi_offset 13, -40
	.cfi_offset 12, -48
	movq	%rdi, %r12
	pushq	%rbx
	subq	$56, %rsp
	.cfi_offset 3, -56
	movl	%esi, -68(%rbp)
	movq	%rcx, -80(%rbp)
	movl	%r8d, -88(%rbp)
	movq	%fs:40, %rax
	movq	%rax, -56(%rbp)
	xorl	%eax, %eax
	movq	$0, 40(%rdi)
	movups	%xmm0, 8(%rdi)
	movups	%xmm0, 24(%rdi)
	.p2align 4,,10
	.p2align 3
.L1513:
.LEHB81:
	call	glGetError@PLT
	testl	%eax, %eax
	jne	.L1513
	movq	%r12, %rsi
	movl	$1, %edi
	call	*__glewGenVertexArrays(%rip)
	leaq	.LC3(%rip), %r13
	leaq	.LC13(%rip), %r14
	jmp	.L1515
	.p2align 4,,10
	.p2align 3
.L1570:
	movl	%eax, %r9d
	leaq	.LC12(%rip), %r8
	movq	%r13, %rcx
	movq	%r14, %rsi
	movl	$12, %edx
	movl	$2, %edi
	xorl	%eax, %eax
	call	_ZN6logger3logEiPKciS1_S1_z.constprop.0
.L1515:
	call	glGetError@PLT
.LEHE81:
	movl	%eax, %ebx
	testl	%eax, %eax
	jne	.L1570
	pxor	%xmm0, %xmm0
	movl	-88(%rbp), %edi
	movq	%rsp, -96(%rbp)
	movups	%xmm0, 80(%r12)
	movq	8(%r15), %rax
	subq	(%r15), %rax
	sarq	$2, %rax
	movd	-68(%rbp), %xmm0
	movq	$0, 96(%r12)
	movd	%eax, %xmm2
	movl	%eax, %r13d
	punpckldq	%xmm2, %xmm0
	movq	%xmm0, 64(%r12)
	testl	%edi, %edi
	je	.L1539
	movl	$35048, %eax
	cmpl	$1, %edi
	jne	.L1571
.L1518:
	movl	%r13d, %ecx
	movl	%eax, 72(%r12)
	leaq	0(,%rcx,4), %rdx
	leaq	15(%rdx), %rax
	shrq	$4, %rax
	salq	$4, %rax
	subq	%rax, %rsp
	movq	%rsp, %r14
	testl	%r13d, %r13d
	je	.L1521
	xorl	%esi, %esi
	movq	%r14, %rdi
	movq	%rcx, -88(%rbp)
	call	memset@PLT
	movq	(%r15), %rdx
	movq	-88(%rbp), %rcx
	leaq	4(%rdx), %rsi
	subq	%rsi, %rax
	cmpq	$8, %rax
	jbe	.L1522
	leal	-1(%r13), %eax
	cmpl	$2, %eax
	jbe	.L1522
	movl	%r13d, %ecx
	xorl	%eax, %eax
	shrl	$2, %ecx
	salq	$4, %rcx
	.p2align 4,,10
	.p2align 3
.L1523:
	movdqu	(%rdx,%rax), %xmm1
	movups	%xmm1, (%r14,%rax)
	addq	$16, %rax
	cmpq	%rax, %rcx
	jne	.L1523
	movl	%r13d, %eax
	andl	$-4, %eax
	testb	$3, %r13b
	je	.L1521
	movl	%eax, %ecx
	movl	(%rdx,%rcx,4), %esi
	movl	%esi, (%r14,%rcx,4)
	leal	1(%rax), %ecx
	cmpl	%ecx, %r13d
	jbe	.L1521
	movl	(%rdx,%rcx,4), %esi
	addl	$2, %eax
	movl	%esi, (%r14,%rcx,4)
	cmpl	%r13d, %eax
	jnb	.L1521
	movl	(%rdx,%rax,4), %edx
	movl	%edx, (%r14,%rax,4)
.L1521:
	movl	$16, %edi
.LEHB82:
	call	_Znwm@PLT
.LEHE82:
	leal	0(,%r13,4), %edx
	movq	%r14, %rsi
	movq	%rax, %rdi
	movq	%rax, %r15
.LEHB83:
	call	_ZN11IndexBufferC1EPjj
.LEHE83:
	movq	%r15, 48(%r12)
	movl	$24, %edi
.LEHB84:
	call	_Znwm@PLT
.LEHE84:
	movq	%rax, %r13
	movl	-68(%rbp), %eax
	movl	72(%r12), %edx
	movq	%r13, %rdi
	sall	$2, %eax
	movl	%edx, 16(%r13)
	movq	%rax, 8(%r13)
.LEHB85:
	call	_ZN12VertexBuffer4initEv
.LEHE85:
	movq	-80(%rbp), %rax
	movq	%r13, %xmm0
	movq	%r13, 56(%r12)
	movhps	48(%r12), %xmm0
	movq	(%rax), %r14
	movq	8(%rax), %rdx
	movups	%xmm0, 8(%r12)
	subq	%r14, %rdx
	leaq	15(%rdx), %rax
	movq	%rdx, %r13
	andq	$-16, %rax
	sarq	$2, %r13
	subq	%rax, %rsp
	movq	%rsp, %r8
	testq	%rdx, %rdx
	jle	.L1531
	movq	%r8, %rdi
	xorl	%esi, %esi
	call	memset@PLT
	movq	%rax, %r8
.L1531:
	xorl	%edx, %edx
	movl	%ebx, %eax
	testq	%r13, %r13
	je	.L1530
	.p2align 4,,10
	.p2align 3
.L1529:
	movl	(%r14,%rdx,4), %edx
	movl	%edx, (%r8,%rax,4)
	leal	1(%rbx), %eax
	movq	%rax, %rbx
	movq	%rax, %rdx
	cmpq	%r13, %rax
	jb	.L1529
.L1530:
	movl	%r13d, %edx
	movq	%r8, %rsi
	movq	%r12, %rdi
.LEHB86:
	call	_ZN11ArrayBuffer9setLayoutEPjj
	movq	-56(%rbp), %rax
	subq	%fs:40, %rax
	jne	.L1572
	leaq	-40(%rbp), %rsp
	popq	%rbx
	popq	%r12
	popq	%r13
	popq	%r14
	popq	%r15
	popq	%rbp
	.cfi_remember_state
	.cfi_def_cfa 7, 8
	ret
	.p2align 4,,10
	.p2align 3
.L1571:
	.cfi_restore_state
	movl	%edi, %r9d
	leaq	.LC33(%rip), %r8
	xorl	%eax, %eax
	movl	$9, %edx
	leaq	.LC3(%rip), %rcx
	leaq	.LC34(%rip), %rsi
	movl	$1, %edi
	call	_ZN6logger3logEiPKciS1_S1_z
.LEHE86:
	movl	68(%r12), %r13d
	movl	$35044, %eax
	jmp	.L1518
	.p2align 4,,10
	.p2align 3
.L1539:
	movl	$35044, %eax
	jmp	.L1518
	.p2align 4,,10
	.p2align 3
.L1522:
	xorl	%eax, %eax
	.p2align 4,,10
	.p2align 3
.L1526:
	movl	(%rdx,%rax,4), %esi
	movl	%esi, (%r14,%rax,4)
	addq	$1, %rax
	cmpq	%rax, %rcx
	jne	.L1526
	jmp	.L1521
.L1572:
	call	__stack_chk_fail@PLT
.L1544:
	movq	%rax, %rbx
	jmp	.L1535
.L1543:
	movq	%rax, %r13
	jmp	.L1533
.L1545:
	movq	%rax, %r13
	jmp	.L1516
.L1542:
	movq	%rax, %r13
	jmp	.L1534
	.section	.gcc_except_table
.LLSDA4479:
	.byte	0xff
	.byte	0xff
	.byte	0x1
	.uleb128 .LLSDACSE4479-.LLSDACSB4479
.LLSDACSB4479:
	.uleb128 .LEHB81-.LFB4479
	.uleb128 .LEHE81-.LEHB81
	.uleb128 .L1545-.LFB4479
	.uleb128 0
	.uleb128 .LEHB82-.LFB4479
	.uleb128 .LEHE82-.LEHB82
	.uleb128 .L1542-.LFB4479
	.uleb128 0
	.uleb128 .LEHB83-.LFB4479
	.uleb128 .LEHE83-.LEHB83
	.uleb128 .L1543-.LFB4479
	.uleb128 0
	.uleb128 .LEHB84-.LFB4479
	.uleb128 .LEHE84-.LEHB84
	.uleb128 .L1542-.LFB4479
	.uleb128 0
	.uleb128 .LEHB85-.LFB4479
	.uleb128 .LEHE85-.LEHB85
	.uleb128 .L1544-.LFB4479
	.uleb128 0
	.uleb128 .LEHB86-.LFB4479
	.uleb128 .LEHE86-.LEHB86
	.uleb128 .L1542-.LFB4479
	.uleb128 0
.LLSDACSE4479:
	.text
	.cfi_endproc
	.section	.text.unlikely
	.cfi_startproc
	.cfi_personality 0x9b,DW.ref.__gxx_personality_v0
	.cfi_lsda 0x1b,.LLSDAC4479
	.type	_ZN4MeshC2EjSt6vectorIjSaIjEES2_i.cold, @function
_ZN4MeshC2EjSt6vectorIjSaIjEES2_i.cold:
.LFSB4479:
.L1535:
	.cfi_def_cfa 6, 16
	.cfi_offset 3, -56
	.cfi_offset 6, -16
	.cfi_offset 12, -48
	.cfi_offset 13, -40
	.cfi_offset 14, -32
	.cfi_offset 15, -24
	movq	%r13, %rdi
	movl	$24, %esi
	movq	%rbx, %r13
	call	_ZdlPvm@PLT
	jmp	.L1534
.L1533:
	movl	$16, %esi
	movq	%r15, %rdi
	call	_ZdlPvm@PLT
.L1534:
	movq	80(%r12), %rdi
	movq	96(%r12), %rsi
	movq	-96(%rbp), %rsp
	subq	%rdi, %rsi
	testq	%rdi, %rdi
	je	.L1536
